

Microchip MPLAB XC8 Assembler V2.32 build 20210201212658 
                                                                                               Sat Jan 01 22:57:59 2022

Microchip MPLAB XC8 C Compiler v2.32 (Free license) build 20210201212658 Og1 
     1                           	processor	16F877
     2                           	pagewidth 120
     3                           	opt	flic
     4                           	psect	cinit,global,class=CODE,merge=1,delta=2
     5                           	psect	cstackCOMMON,global,class=COMMON,space=1,delta=1,noexec
     6                           	psect	cstackBANK0,global,class=BANK0,space=1,delta=1,noexec
     7                           	psect	maintext,global,class=CODE,split=1,delta=2
     8                           	psect	text1,local,class=CODE,merge=1,delta=2
     9                           	psect	text2,local,class=CODE,merge=1,delta=2
    10                           	psect	text3,local,class=CODE,merge=1,delta=2
    11                           	psect	text4,local,class=CODE,merge=1,delta=2
    12                           	psect	text5,local,class=CODE,merge=1,delta=2
    13                           	psect	text6,local,class=CODE,merge=1,delta=2
    14                           	psect	text7,local,class=CODE,merge=1,delta=2,group=1
    15                           	psect	text8,local,class=CODE,merge=1,delta=2,group=1
    16                           	psect	text9,local,class=CODE,merge=1,delta=2,group=1
    17                           	psect	text10,local,class=CODE,merge=1,delta=2,group=1
    18                           	psect	text11,local,class=CODE,merge=1,delta=2,group=1
    19                           	psect	text12,local,class=CODE,merge=1,delta=2,group=1
    20                           	psect	text13,local,class=CODE,merge=1,delta=2,group=1
    21                           	psect	config,global,abs,ovrld,class=CONFIG,space=4,delta=2,noexec
    22                           	dabs	1,0x7E,2
    23  0000                     
    24                           ; Version 2.20
    25                           ; Generated 12/02/2020 GMT
    26                           ; 
    27                           ; Copyright © 2020, Microchip Technology Inc. and its subsidiaries ("Microchip")
    28                           ; All rights reserved.
    29                           ; 
    30                           ; This software is developed by Microchip Technology Inc. and its subsidiaries ("Microch
      +                          ip").
    31                           ; 
    32                           ; Redistribution and use in source and binary forms, with or without modification, are
    33                           ; permitted provided that the following conditions are met:
    34                           ; 
    35                           ;     1. Redistributions of source code must retain the above copyright notice, this lis
      +                          t of
    36                           ;        conditions and the following disclaimer.
    37                           ; 
    38                           ;     2. Redistributions in binary form must reproduce the above copyright notice, this 
      +                          list
    39                           ;        of conditions and the following disclaimer in the documentation and/or other
    40                           ;        materials provided with the distribution.
    41                           ; 
    42                           ;     3. Microchip's name may not be used to endorse or promote products derived from th
      +                          is
    43                           ;        software without specific prior written permission.
    44                           ; 
    45                           ; THIS SOFTWARE IS PROVIDED BY MICROCHIP "AS IS" AND ANY EXPRESS OR IMPLIED WARRANTIES,
    46                           ; INCLUDING, BUT NOT LIMITED TO, THE IMPLIED WARRANTIES OF MERCHANTABILITY AND FITNESS F
      +                          OR
    47                           ; PURPOSE ARE DISCLAIMED.  IN NO EVENT SHALL MICROCHIP BE LIABLE FOR ANY DIRECT, INDIREC
      +                          T,
    48                           ; INCIDENTAL, SPECIAL, EXEMPLARY, OR CONSEQUENTIAL DAMAGES (INCLUDING BUT NOT LIMITED TO
    49                           ; PROCUREMENT OF SUBSTITUTE GOODS OR SERVICES; LOSS OF USE, DATA OR PROFITS; OR BUSINESS
    50                           ; INTERRUPTION) HOWSOEVER CAUSED AND ON ANY THEORY OF LIABILITY, WHETHER IN CONTRACT, ST
      +                          RICT
    51                           ; LIABILITY, OR TORT (INCLUDING NEGLIGENCE OR OTHERWISE) ARISING IN ANY WAY OUT OF THE U
      +                          SE OF
    52                           ; THIS SOFTWARE, EVEN IF ADVISED OF THE POSSIBILITY OF SUCH DAMAGE.
    53                           ; 
    54                           ; 
    55                           ; Code-generator required, PIC16F877 Definitions
    56                           ; 
    57                           ; SFR Addresses
    58  0000                     	;# 
    59  0001                     	;# 
    60  0002                     	;# 
    61  0003                     	;# 
    62  0004                     	;# 
    63  0005                     	;# 
    64  0006                     	;# 
    65  0007                     	;# 
    66  0008                     	;# 
    67  0009                     	;# 
    68  000A                     	;# 
    69  000B                     	;# 
    70  000C                     	;# 
    71  000D                     	;# 
    72  000E                     	;# 
    73  000E                     	;# 
    74  000F                     	;# 
    75  0010                     	;# 
    76  0011                     	;# 
    77  0012                     	;# 
    78  0013                     	;# 
    79  0014                     	;# 
    80  0015                     	;# 
    81  0015                     	;# 
    82  0016                     	;# 
    83  0017                     	;# 
    84  0018                     	;# 
    85  0019                     	;# 
    86  001A                     	;# 
    87  001B                     	;# 
    88  001B                     	;# 
    89  001C                     	;# 
    90  001D                     	;# 
    91  001E                     	;# 
    92  001F                     	;# 
    93  0081                     	;# 
    94  0085                     	;# 
    95  0086                     	;# 
    96  0087                     	;# 
    97  0088                     	;# 
    98  0089                     	;# 
    99  008C                     	;# 
   100  008D                     	;# 
   101  008E                     	;# 
   102  0091                     	;# 
   103  0092                     	;# 
   104  0093                     	;# 
   105  0094                     	;# 
   106  0098                     	;# 
   107  0099                     	;# 
   108  009E                     	;# 
   109  009F                     	;# 
   110  010C                     	;# 
   111  010D                     	;# 
   112  010E                     	;# 
   113  010F                     	;# 
   114  018C                     	;# 
   115  018D                     	;# 
   116  0000                     	;# 
   117  0001                     	;# 
   118  0002                     	;# 
   119  0003                     	;# 
   120  0004                     	;# 
   121  0005                     	;# 
   122  0006                     	;# 
   123  0007                     	;# 
   124  0008                     	;# 
   125  0009                     	;# 
   126  000A                     	;# 
   127  000B                     	;# 
   128  000C                     	;# 
   129  000D                     	;# 
   130  000E                     	;# 
   131  000E                     	;# 
   132  000F                     	;# 
   133  0010                     	;# 
   134  0011                     	;# 
   135  0012                     	;# 
   136  0013                     	;# 
   137  0014                     	;# 
   138  0015                     	;# 
   139  0015                     	;# 
   140  0016                     	;# 
   141  0017                     	;# 
   142  0018                     	;# 
   143  0019                     	;# 
   144  001A                     	;# 
   145  001B                     	;# 
   146  001B                     	;# 
   147  001C                     	;# 
   148  001D                     	;# 
   149  001E                     	;# 
   150  001F                     	;# 
   151  0081                     	;# 
   152  0085                     	;# 
   153  0086                     	;# 
   154  0087                     	;# 
   155  0088                     	;# 
   156  0089                     	;# 
   157  008C                     	;# 
   158  008D                     	;# 
   159  008E                     	;# 
   160  0091                     	;# 
   161  0092                     	;# 
   162  0093                     	;# 
   163  0094                     	;# 
   164  0098                     	;# 
   165  0099                     	;# 
   166  009E                     	;# 
   167  009F                     	;# 
   168  010C                     	;# 
   169  010D                     	;# 
   170  010E                     	;# 
   171  010F                     	;# 
   172  018C                     	;# 
   173  018D                     	;# 
   174  0000                     	;# 
   175  0001                     	;# 
   176  0002                     	;# 
   177  0003                     	;# 
   178  0004                     	;# 
   179  0005                     	;# 
   180  0006                     	;# 
   181  0007                     	;# 
   182  0008                     	;# 
   183  0009                     	;# 
   184  000A                     	;# 
   185  000B                     	;# 
   186  000C                     	;# 
   187  000D                     	;# 
   188  000E                     	;# 
   189  000E                     	;# 
   190  000F                     	;# 
   191  0010                     	;# 
   192  0011                     	;# 
   193  0012                     	;# 
   194  0013                     	;# 
   195  0014                     	;# 
   196  0015                     	;# 
   197  0015                     	;# 
   198  0016                     	;# 
   199  0017                     	;# 
   200  0018                     	;# 
   201  0019                     	;# 
   202  001A                     	;# 
   203  001B                     	;# 
   204  001B                     	;# 
   205  001C                     	;# 
   206  001D                     	;# 
   207  001E                     	;# 
   208  001F                     	;# 
   209  0081                     	;# 
   210  0085                     	;# 
   211  0086                     	;# 
   212  0087                     	;# 
   213  0088                     	;# 
   214  0089                     	;# 
   215  008C                     	;# 
   216  008D                     	;# 
   217  008E                     	;# 
   218  0091                     	;# 
   219  0092                     	;# 
   220  0093                     	;# 
   221  0094                     	;# 
   222  0098                     	;# 
   223  0099                     	;# 
   224  009E                     	;# 
   225  009F                     	;# 
   226  010C                     	;# 
   227  010D                     	;# 
   228  010E                     	;# 
   229  010F                     	;# 
   230  018C                     	;# 
   231  018D                     	;# 
   232  001E                     _ADRESH	set	30
   233  001F                     _ADCON0	set	31
   234  0008                     _PORTD	set	8
   235  00FA                     _GO_DONE	set	250
   236  0042                     _RD2	set	66
   237  0040                     _RD0	set	64
   238  0041                     _RD1	set	65
   239  009E                     _ADRESL	set	158
   240  0088                     _TRISD	set	136
   241  009F                     _ADCON1	set	159
   242  0085                     _TRISA	set	133
   243                           
   244                           	psect	cinit
   245  07FC                     start_initialization:	
   246                           ; #config settings
   247                           
   248  07FC                     __initialization:
   249  07FC                     end_of_initialization:	
   250                           ;End of C runtime variable initialization code
   251                           
   252  07FC                     __end_of__initialization:
   253  07FC  0183               	clrf	3
   254  07FD  120A  118A  29AA   	ljmp	_main	;jump to C main() function
   255                           
   256                           	psect	cstackCOMMON
   257  0070                     __pcstackCOMMON:
   258  0070                     ?_lcd_command:
   259  0070                     ?_wait:	
   260                           ; 1 bytes @ 0x0
   261                           
   262  0070                     ??_wait:	
   263                           ; 1 bytes @ 0x0
   264                           
   265  0070                     ?_send_data:	
   266                           ; 1 bytes @ 0x0
   267                           
   268  0070                     ?_lcd_clean:	
   269                           ; 1 bytes @ 0x0
   270                           
   271  0070                     ?_lcd_prepare:	
   272                           ; 1 bytes @ 0x0
   273                           
   274  0070                     ?_main:	
   275                           ; 1 bytes @ 0x0
   276                           
   277  0070                     ?__Umul8_16:	
   278                           ; 1 bytes @ 0x0
   279                           
   280  0070                     ?___awmod:	
   281                           ; 2 bytes @ 0x0
   282                           
   283  0070                     ?___fltol:	
   284                           ; 2 bytes @ 0x0
   285                           
   286  0070                     ?___xxtofl:	
   287                           ; 4 bytes @ 0x0
   288                           
   289  0070                     __Umul8_16@multiplicand:	
   290                           ; 4 bytes @ 0x0
   291                           
   292  0070                     ___awmod@divisor:	
   293                           ; 1 bytes @ 0x0
   294                           
   295  0070                     ___fltol@f1:	
   296                           ; 2 bytes @ 0x0
   297                           
   298  0070                     ___xxtofl@val:	
   299                           ; 4 bytes @ 0x0
   300                           
   301                           
   302                           ; 4 bytes @ 0x0
   303  0070                     	ds	1
   304  0071                     ??_lcd_command:
   305  0071                     ??_send_data:	
   306                           ; 1 bytes @ 0x1
   307                           
   308                           
   309                           ; 1 bytes @ 0x1
   310  0071                     	ds	1
   311  0072                     ??__Umul8_16:
   312  0072                     ___awmod@dividend:	
   313                           ; 1 bytes @ 0x2
   314                           
   315                           
   316                           ; 2 bytes @ 0x2
   317  0072                     	ds	1
   318  0073                     send_data@c:
   319  0073                     lcd_command@c:	
   320                           ; 1 bytes @ 0x3
   321                           
   322                           
   323                           ; 1 bytes @ 0x3
   324  0073                     	ds	1
   325  0074                     ??_lcd_clean:
   326  0074                     ?_lcd_gotoxy:	
   327                           ; 1 bytes @ 0x4
   328                           
   329  0074                     ??___awmod:	
   330                           ; 1 bytes @ 0x4
   331                           
   332  0074                     ??___fltol:	
   333                           ; 1 bytes @ 0x4
   334                           
   335  0074                     ??___xxtofl:	
   336                           ; 1 bytes @ 0x4
   337                           
   338  0074                     lcd_gotoxy@y:	
   339                           ; 1 bytes @ 0x4
   340                           
   341  0074                     __Umul8_16@product:	
   342                           ; 1 bytes @ 0x4
   343                           
   344                           
   345                           ; 2 bytes @ 0x4
   346  0074                     	ds	1
   347  0075                     ??_lcd_gotoxy:
   348  0075                     lcd_gotoxy@x:	
   349                           ; 1 bytes @ 0x5
   350                           
   351  0075                     ___awmod@counter:	
   352                           ; 1 bytes @ 0x5
   353                           
   354                           
   355                           ; 1 bytes @ 0x5
   356  0075                     	ds	1
   357  0076                     ??_lcd_prepare:
   358  0076                     ___awmod@sign:	
   359                           ; 1 bytes @ 0x6
   360                           
   361  0076                     __Umul8_16@word_mpld:	
   362                           ; 1 bytes @ 0x6
   363                           
   364                           
   365                           ; 2 bytes @ 0x6
   366  0076                     	ds	1
   367  0077                     ?___awdiv:
   368  0077                     ___awdiv@divisor:	
   369                           ; 2 bytes @ 0x7
   370                           
   371                           
   372                           ; 2 bytes @ 0x7
   373  0077                     	ds	1
   374  0078                     __Umul8_16@multiplier:
   375  0078                     ___xxtofl@sign:	
   376                           ; 1 bytes @ 0x8
   377                           
   378                           
   379                           ; 1 bytes @ 0x8
   380  0078                     	ds	1
   381  0079                     ___fltol@sign1:
   382  0079                     ___xxtofl@exp:	
   383                           ; 1 bytes @ 0x9
   384                           
   385  0079                     ___awdiv@dividend:	
   386                           ; 1 bytes @ 0x9
   387                           
   388                           
   389                           ; 2 bytes @ 0x9
   390  0079                     	ds	1
   391  007A                     ___fltol@exp1:
   392  007A                     ___xxtofl@arg:	
   393                           ; 1 bytes @ 0xA
   394                           
   395                           
   396                           ; 4 bytes @ 0xA
   397  007A                     	ds	1
   398  007B                     ??___awdiv:
   399                           
   400                           ; 1 bytes @ 0xB
   401  007B                     	ds	3
   402                           
   403                           	psect	cstackBANK0
   404  0020                     __pcstackBANK0:
   405  0020                     ?___flmul:
   406  0020                     ___awdiv@counter:	
   407                           ; 4 bytes @ 0x0
   408                           
   409  0020                     ___flmul@b:	
   410                           ; 1 bytes @ 0x0
   411                           
   412                           
   413                           ; 4 bytes @ 0x0
   414  0020                     	ds	1
   415  0021                     ___awdiv@sign:
   416                           
   417                           ; 1 bytes @ 0x1
   418  0021                     	ds	1
   419  0022                     ___awdiv@quotient:
   420                           
   421                           ; 2 bytes @ 0x2
   422  0022                     	ds	2
   423  0024                     ___flmul@a:
   424                           
   425                           ; 4 bytes @ 0x4
   426  0024                     	ds	4
   427  0028                     ??___flmul:
   428                           
   429                           ; 1 bytes @ 0x8
   430  0028                     	ds	5
   431  002D                     ___flmul@sign:
   432                           
   433                           ; 1 bytes @ 0xD
   434  002D                     	ds	1
   435  002E                     ___flmul@grs:
   436                           
   437                           ; 4 bytes @ 0xE
   438  002E                     	ds	4
   439  0032                     ___flmul@aexp:
   440                           
   441                           ; 1 bytes @ 0x12
   442  0032                     	ds	1
   443  0033                     ___flmul@bexp:
   444                           
   445                           ; 1 bytes @ 0x13
   446  0033                     	ds	1
   447  0034                     ___flmul@prod:
   448                           
   449                           ; 4 bytes @ 0x14
   450  0034                     	ds	4
   451  0038                     ___flmul@temp:
   452                           
   453                           ; 2 bytes @ 0x18
   454  0038                     	ds	2
   455  003A                     ?___fldiv:
   456  003A                     ___fldiv@a:	
   457                           ; 4 bytes @ 0x1A
   458                           
   459                           
   460                           ; 4 bytes @ 0x1A
   461  003A                     	ds	4
   462  003E                     ___fldiv@b:
   463                           
   464                           ; 4 bytes @ 0x1E
   465  003E                     	ds	4
   466  0042                     ??___fldiv:
   467                           
   468                           ; 1 bytes @ 0x22
   469  0042                     	ds	5
   470  0047                     ___fldiv@rem:
   471                           
   472                           ; 4 bytes @ 0x27
   473  0047                     	ds	4
   474  004B                     ___fldiv@sign:
   475                           
   476                           ; 1 bytes @ 0x2B
   477  004B                     	ds	1
   478  004C                     ___fldiv@new_exp:
   479                           
   480                           ; 2 bytes @ 0x2C
   481  004C                     	ds	2
   482  004E                     ___fldiv@grs:
   483                           
   484                           ; 4 bytes @ 0x2E
   485  004E                     	ds	4
   486  0052                     ___fldiv@bexp:
   487                           
   488                           ; 1 bytes @ 0x32
   489  0052                     	ds	1
   490  0053                     ___fldiv@aexp:
   491                           
   492                           ; 1 bytes @ 0x33
   493  0053                     	ds	1
   494  0054                     ??_main:
   495                           
   496                           ; 1 bytes @ 0x34
   497  0054                     	ds	2
   498  0056                     main@tmp:
   499                           
   500                           ; 4 bytes @ 0x36
   501  0056                     	ds	4
   502  005A                     _main$684:
   503                           
   504                           ; 4 bytes @ 0x3A
   505  005A                     	ds	4
   506  005E                     main@volt:
   507                           
   508                           ; 2 bytes @ 0x3E
   509  005E                     	ds	2
   510                           
   511                           	psect	maintext
   512  01AA                     __pmaintext:	
   513 ;;
   514 ;;Main: autosize = 0, tempsize = 2, incstack = 0, save=0
   515 ;;
   516 ;; *************** function _main *****************
   517 ;; Defined at:
   518 ;;		line 99 in file "adc_example1.c"
   519 ;; Parameters:    Size  Location     Type
   520 ;;		None
   521 ;; Auto vars:     Size  Location     Type
   522 ;;  tmp             4   54[BANK0 ] 
   523 ;;  volt            2   62[BANK0 ] int 
   524 ;; Return value:  Size  Location     Type
   525 ;;                  1    wreg      void 
   526 ;; Registers used:
   527 ;;		wreg, status,2, status,0, btemp+1, pclath, cstack
   528 ;; Tracked objects:
   529 ;;		On entry : B00/0
   530 ;;		On exit  : 0/0
   531 ;;		Unchanged: 0/0
   532 ;; Data sizes:     COMMON   BANK0   BANK1   BANK3   BANK2
   533 ;;      Params:         0       0       0       0       0
   534 ;;      Locals:         0      10       0       0       0
   535 ;;      Temps:          0       2       0       0       0
   536 ;;      Totals:         0      12       0       0       0
   537 ;;Total ram usage:       12 bytes
   538 ;; Hardware stack levels required when called: 4
   539 ;; This function calls:
   540 ;;		___awdiv
   541 ;;		___awmod
   542 ;;		___fldiv
   543 ;;		___flmul
   544 ;;		___fltol
   545 ;;		___xxtofl
   546 ;;		_lcd_gotoxy
   547 ;;		_lcd_prepare
   548 ;;		_send_data
   549 ;; This function is called by:
   550 ;;		Startup code after reset
   551 ;; This function uses a non-reentrant model
   552 ;;
   553                           
   554                           
   555                           ;psect for function _main
   556  01AA                     _main:
   557  01AA                     l1717:	
   558                           ;incstack = 0
   559                           ; Regs used in _main: [wreg+status,2+status,0+btemp+1+pclath+cstack]
   560                           
   561                           
   562                           ;adc_example1.c: 102:     TRISA = 0x01;
   563  01AA  3001               	movlw	1
   564  01AB  1683               	bsf	3,5	;RP0=1, select bank1
   565  01AC  1303               	bcf	3,6	;RP1=0, select bank1
   566  01AD  0085               	movwf	5	;volatile
   567                           
   568                           ;adc_example1.c: 103:     ADCON0 = 0x01;
   569  01AE  3001               	movlw	1
   570  01AF  1283               	bcf	3,5	;RP0=0, select bank0
   571  01B0  1303               	bcf	3,6	;RP1=0, select bank0
   572  01B1  009F               	movwf	31	;volatile
   573                           
   574                           ;adc_example1.c: 104:     ADCON1 = 0x80;
   575  01B2  3080               	movlw	128
   576  01B3  1683               	bsf	3,5	;RP0=1, select bank1
   577  01B4  1303               	bcf	3,6	;RP1=0, select bank1
   578  01B5  009F               	movwf	31	;volatile
   579  01B6                     l1719:
   580                           
   581                           ;adc_example1.c: 107:     TRISD = 0x00;
   582  01B6  0188               	clrf	8	;volatile
   583  01B7                     l1721:
   584                           
   585                           ;adc_example1.c: 109:     lcd_prepare();
   586  01B7  120A  158A  2769  120A  118A  	fcall	_lcd_prepare
   587  01BC                     l1723:
   588                           
   589                           ;adc_example1.c: 113:         GO_DONE = 1;
   590  01BC  1283               	bcf	3,5	;RP0=0, select bank0
   591  01BD  1303               	bcf	3,6	;RP1=0, select bank0
   592  01BE  151F               	bsf	31,2	;volatile
   593  01BF                     l64:	
   594                           ;adc_example1.c: 114:         while(GO_DONE);
   595                           
   596  01BF  191F               	btfsc	31,2	;volatile
   597  01C0  29C2               	goto	u2341
   598  01C1  29C3               	goto	u2340
   599  01C2                     u2341:
   600  01C2  29BF               	goto	l64
   601  01C3                     u2340:
   602  01C3                     l1725:
   603                           
   604                           ;adc_example1.c: 115:         double tmp = (ADRESH*256 + ADRESL) * 5.0/1024.0 * 100;
   605  01C3  3044               	movlw	68
   606  01C4  00BD               	movwf	___fldiv@a+3
   607  01C5  3080               	movlw	128
   608  01C6  00BC               	movwf	___fldiv@a+2
   609  01C7  3000               	movlw	0
   610  01C8  00BB               	movwf	___fldiv@a+1
   611  01C9  3000               	movlw	0
   612  01CA  00BA               	movwf	___fldiv@a
   613  01CB  3040               	movlw	64
   614  01CC  00A3               	movwf	___flmul@b+3
   615  01CD  30A0               	movlw	160
   616  01CE  00A2               	movwf	___flmul@b+2
   617  01CF  3000               	movlw	0
   618  01D0  00A1               	movwf	___flmul@b+1
   619  01D1  3000               	movlw	0
   620  01D2  00A0               	movwf	___flmul@b
   621  01D3  081E               	movf	30,w	;volatile
   622  01D4  00D4               	movwf	??_main
   623  01D5  01D5               	clrf	??_main+1
   624  01D6  0854               	movf	??_main,w
   625  01D7  00D5               	movwf	??_main+1
   626  01D8  01D4               	clrf	??_main
   627  01D9  1683               	bsf	3,5	;RP0=1, select bank1
   628  01DA  1303               	bcf	3,6	;RP1=0, select bank1
   629  01DB  081E               	movf	30,w	;volatile
   630  01DC  1283               	bcf	3,5	;RP0=0, select bank0
   631  01DD  1303               	bcf	3,6	;RP1=0, select bank0
   632  01DE  0754               	addwf	??_main,w
   633  01DF  00F0               	movwf	___xxtofl@val
   634  01E0  3000               	movlw	0
   635  01E1  1803               	skipnc
   636  01E2  3001               	movlw	1
   637  01E3  0755               	addwf	??_main+1,w
   638  01E4  00F1               	movwf	___xxtofl@val+1
   639  01E5  01F2               	clrf	___xxtofl@val+2
   640  01E6  1BF1               	btfsc	___xxtofl@val+1,7
   641  01E7  03F2               	decf	___xxtofl@val+2,f
   642  01E8  0872               	movf	___xxtofl@val+2,w
   643  01E9  00F3               	movwf	___xxtofl@val+3
   644  01EA  3001               	movlw	1
   645  01EB  120A  118A  20F0  120A  118A  	fcall	___xxtofl
   646  01F0  0873               	movf	?___xxtofl+3,w
   647  01F1  1283               	bcf	3,5	;RP0=0, select bank0
   648  01F2  1303               	bcf	3,6	;RP1=0, select bank0
   649  01F3  00A7               	movwf	___flmul@a+3
   650  01F4  0872               	movf	?___xxtofl+2,w
   651  01F5  00A6               	movwf	___flmul@a+2
   652  01F6  0871               	movf	?___xxtofl+1,w
   653  01F7  00A5               	movwf	___flmul@a+1
   654  01F8  0870               	movf	?___xxtofl,w
   655  01F9  00A4               	movwf	___flmul@a
   656  01FA  120A  118A  249B  120A  118A  	fcall	___flmul
   657  01FF  1283               	bcf	3,5	;RP0=0, select bank0
   658  0200  1303               	bcf	3,6	;RP1=0, select bank0
   659  0201  0823               	movf	?___flmul+3,w
   660  0202  00C1               	movwf	___fldiv@b+3
   661  0203  0822               	movf	?___flmul+2,w
   662  0204  00C0               	movwf	___fldiv@b+2
   663  0205  0821               	movf	?___flmul+1,w
   664  0206  00BF               	movwf	___fldiv@b+1
   665  0207  0820               	movf	?___flmul,w
   666  0208  00BE               	movwf	___fldiv@b
   667  0209  120A  118A  22BE  120A  118A  	fcall	___fldiv
   668  020E  1283               	bcf	3,5	;RP0=0, select bank0
   669  020F  1303               	bcf	3,6	;RP1=0, select bank0
   670  0210  083D               	movf	?___fldiv+3,w
   671  0211  00DD               	movwf	_main$684+3
   672  0212  083C               	movf	?___fldiv+2,w
   673  0213  00DC               	movwf	_main$684+2
   674  0214  083B               	movf	?___fldiv+1,w
   675  0215  00DB               	movwf	_main$684+1
   676  0216  083A               	movf	?___fldiv,w
   677  0217  00DA               	movwf	_main$684
   678                           
   679                           ;adc_example1.c: 115:         double tmp = (ADRESH*256 + ADRESL) * 5.0/1024.0 * 100;
   680  0218  3042               	movlw	66
   681  0219  00A3               	movwf	___flmul@b+3
   682  021A  30C8               	movlw	200
   683  021B  00A2               	movwf	___flmul@b+2
   684  021C  3000               	movlw	0
   685  021D  00A1               	movwf	___flmul@b+1
   686  021E  3000               	movlw	0
   687  021F  00A0               	movwf	___flmul@b
   688  0220  085D               	movf	_main$684+3,w
   689  0221  00A7               	movwf	___flmul@a+3
   690  0222  085C               	movf	_main$684+2,w
   691  0223  00A6               	movwf	___flmul@a+2
   692  0224  085B               	movf	_main$684+1,w
   693  0225  00A5               	movwf	___flmul@a+1
   694  0226  085A               	movf	_main$684,w
   695  0227  00A4               	movwf	___flmul@a
   696  0228  120A  118A  249B  120A  118A  	fcall	___flmul
   697  022D  1283               	bcf	3,5	;RP0=0, select bank0
   698  022E  1303               	bcf	3,6	;RP1=0, select bank0
   699  022F  0823               	movf	?___flmul+3,w
   700  0230  00D9               	movwf	main@tmp+3
   701  0231  0822               	movf	?___flmul+2,w
   702  0232  00D8               	movwf	main@tmp+2
   703  0233  0821               	movf	?___flmul+1,w
   704  0234  00D7               	movwf	main@tmp+1
   705  0235  0820               	movf	?___flmul,w
   706  0236  00D6               	movwf	main@tmp
   707  0237                     l1727:
   708                           
   709                           ;adc_example1.c: 116:         int volt = (int)tmp;
   710  0237  0859               	movf	main@tmp+3,w
   711  0238  00F3               	movwf	___fltol@f1+3
   712  0239  0858               	movf	main@tmp+2,w
   713  023A  00F2               	movwf	___fltol@f1+2
   714  023B  0857               	movf	main@tmp+1,w
   715  023C  00F1               	movwf	___fltol@f1+1
   716  023D  0856               	movf	main@tmp,w
   717  023E  00F0               	movwf	___fltol@f1
   718  023F  120A  118A  2076  120A  118A  	fcall	___fltol
   719  0244  0871               	movf	?___fltol+1,w
   720  0245  1283               	bcf	3,5	;RP0=0, select bank0
   721  0246  1303               	bcf	3,6	;RP1=0, select bank0
   722  0247  00DF               	movwf	main@volt+1
   723  0248  0870               	movf	?___fltol,w
   724  0249  00DE               	movwf	main@volt
   725  024A                     l1729:
   726                           
   727                           ;adc_example1.c: 117:         lcd_gotoxy(1,1);
   728  024A  01F4               	clrf	lcd_gotoxy@y
   729  024B  0AF4               	incf	lcd_gotoxy@y,f
   730  024C  3001               	movlw	1
   731  024D  120A  158A  26CE  120A  118A  	fcall	_lcd_gotoxy
   732  0252                     l1731:
   733                           
   734                           ;adc_example1.c: 118:         send_data((volt%1000)/100+48);
   735  0252  3064               	movlw	100
   736  0253  00F7               	movwf	___awdiv@divisor
   737  0254  3000               	movlw	0
   738  0255  00F8               	movwf	___awdiv@divisor+1
   739  0256  1283               	bcf	3,5	;RP0=0, select bank0
   740  0257  1303               	bcf	3,6	;RP1=0, select bank0
   741  0258  085F               	movf	main@volt+1,w
   742  0259  00F3               	movwf	___awmod@dividend+1
   743  025A  085E               	movf	main@volt,w
   744  025B  00F2               	movwf	___awmod@dividend
   745  025C  30E8               	movlw	232
   746  025D  00F0               	movwf	___awmod@divisor
   747  025E  3003               	movlw	3
   748  025F  00F1               	movwf	___awmod@divisor+1
   749  0260  120A  158A  27A7  120A  118A  	fcall	___awmod
   750  0265  0871               	movf	?___awmod+1,w
   751  0266  00FA               	movwf	___awdiv@dividend+1
   752  0267  0870               	movf	?___awmod,w
   753  0268  00F9               	movwf	___awdiv@dividend
   754  0269  120A  118A  200D  120A  118A  	fcall	___awdiv
   755  026E  0877               	movf	?___awdiv,w
   756  026F  3E30               	addlw	48
   757  0270  120A  158A  273C  120A  118A  	fcall	_send_data
   758  0275                     l1733:
   759                           
   760                           ;adc_example1.c: 119:         send_data('.');
   761  0275  302E               	movlw	46
   762  0276  120A  158A  273C  120A  118A  	fcall	_send_data
   763  027B                     l1735:
   764                           
   765                           ;adc_example1.c: 120:         send_data((volt%100)/10+48);
   766  027B  300A               	movlw	10
   767  027C  00F7               	movwf	___awdiv@divisor
   768  027D  3000               	movlw	0
   769  027E  00F8               	movwf	___awdiv@divisor+1
   770  027F  1283               	bcf	3,5	;RP0=0, select bank0
   771  0280  1303               	bcf	3,6	;RP1=0, select bank0
   772  0281  085F               	movf	main@volt+1,w
   773  0282  00F3               	movwf	___awmod@dividend+1
   774  0283  085E               	movf	main@volt,w
   775  0284  00F2               	movwf	___awmod@dividend
   776  0285  3064               	movlw	100
   777  0286  00F0               	movwf	___awmod@divisor
   778  0287  3000               	movlw	0
   779  0288  00F1               	movwf	___awmod@divisor+1
   780  0289  120A  158A  27A7  120A  118A  	fcall	___awmod
   781  028E  0871               	movf	?___awmod+1,w
   782  028F  00FA               	movwf	___awdiv@dividend+1
   783  0290  0870               	movf	?___awmod,w
   784  0291  00F9               	movwf	___awdiv@dividend
   785  0292  120A  118A  200D  120A  118A  	fcall	___awdiv
   786  0297  0877               	movf	?___awdiv,w
   787  0298  3E30               	addlw	48
   788  0299  120A  158A  273C  120A  118A  	fcall	_send_data
   789  029E                     l1737:
   790                           
   791                           ;adc_example1.c: 121:         send_data((volt%10)+48);
   792  029E  300A               	movlw	10
   793  029F  00F0               	movwf	___awmod@divisor
   794  02A0  3000               	movlw	0
   795  02A1  00F1               	movwf	___awmod@divisor+1
   796  02A2  1283               	bcf	3,5	;RP0=0, select bank0
   797  02A3  1303               	bcf	3,6	;RP1=0, select bank0
   798  02A4  085F               	movf	main@volt+1,w
   799  02A5  00F3               	movwf	___awmod@dividend+1
   800  02A6  085E               	movf	main@volt,w
   801  02A7  00F2               	movwf	___awmod@dividend
   802  02A8  120A  158A  27A7  120A  118A  	fcall	___awmod
   803  02AD  0870               	movf	?___awmod,w
   804  02AE  3E30               	addlw	48
   805  02AF  120A  158A  273C  120A  118A  	fcall	_send_data
   806  02B4                     l1739:
   807                           
   808                           ;adc_example1.c: 122:         send_data('V');
   809  02B4  3056               	movlw	86
   810  02B5  120A  158A  273C  120A  118A  	fcall	_send_data
   811  02BA  29BC               	goto	l1723
   812  02BB  120A  118A  2800   	ljmp	start
   813  02BE                     __end_of_main:
   814                           
   815                           	psect	text1
   816  0F3C                     __ptext1:	
   817 ;; *************** function _send_data *****************
   818 ;; Defined at:
   819 ;;		line 7 in file "LDC_LIB.c"
   820 ;; Parameters:    Size  Location     Type
   821 ;;  c               1    wreg     unsigned char 
   822 ;; Auto vars:     Size  Location     Type
   823 ;;  c               1    3[COMMON] unsigned char 
   824 ;; Return value:  Size  Location     Type
   825 ;;                  1    wreg      void 
   826 ;; Registers used:
   827 ;;		wreg, status,2, status,0, pclath, cstack
   828 ;; Tracked objects:
   829 ;;		On entry : 0/0
   830 ;;		On exit  : 0/0
   831 ;;		Unchanged: 0/0
   832 ;; Data sizes:     COMMON   BANK0   BANK1   BANK3   BANK2
   833 ;;      Params:         0       0       0       0       0
   834 ;;      Locals:         1       0       0       0       0
   835 ;;      Temps:          2       0       0       0       0
   836 ;;      Totals:         3       0       0       0       0
   837 ;;Total ram usage:        3 bytes
   838 ;; Hardware stack levels used: 1
   839 ;; Hardware stack levels required when called: 1
   840 ;; This function calls:
   841 ;;		_wait
   842 ;; This function is called by:
   843 ;;		_main
   844 ;;		_lcd_write
   845 ;; This function uses a non-reentrant model
   846 ;;
   847                           
   848                           
   849                           ;psect for function _send_data
   850  0F3C                     _send_data:
   851                           
   852                           ;incstack = 0
   853                           ; Regs used in _send_data: [wreg+status,2+status,0+pclath+cstack]
   854                           ;send_data@c stored from wreg
   855  0F3C  00F3               	movwf	send_data@c
   856  0F3D                     l1235:
   857                           
   858                           ;LDC_LIB.c: 8:     RD1 = 0;
   859  0F3D  1283               	bcf	3,5	;RP0=0, select bank0
   860  0F3E  1303               	bcf	3,6	;RP1=0, select bank0
   861  0F3F  1088               	bcf	8,1	;volatile
   862                           
   863                           ;LDC_LIB.c: 9:     RD0 = 1;
   864  0F40  1408               	bsf	8,0	;volatile
   865                           
   866                           ;LDC_LIB.c: 10:     RD2 = 1;
   867  0F41  1508               	bsf	8,2	;volatile
   868  0F42                     l1237:
   869                           
   870                           ;LDC_LIB.c: 11:     PORTD = ((c & 0xF0) | (PORTD & 0x0F));
   871  0F42  300F               	movlw	15
   872  0F43  0508               	andwf	8,w	;volatile
   873  0F44  00F1               	movwf	??_send_data
   874  0F45  0873               	movf	send_data@c,w
   875  0F46  39F0               	andlw	240
   876  0F47  0471               	iorwf	??_send_data,w
   877  0F48  0088               	movwf	8	;volatile
   878  0F49                     l1239:
   879                           
   880                           ;LDC_LIB.c: 12:     RD2 = 0;
   881  0F49  1108               	bcf	8,2	;volatile
   882  0F4A                     l1241:
   883                           
   884                           ;LDC_LIB.c: 13:     wait();
   885  0F4A  120A  118A  2008  120A  158A  	fcall	_wait
   886  0F4F                     l1243:
   887                           
   888                           ;LDC_LIB.c: 14:     RD2 = 1;
   889  0F4F  1283               	bcf	3,5	;RP0=0, select bank0
   890  0F50  1303               	bcf	3,6	;RP1=0, select bank0
   891  0F51  1508               	bsf	8,2	;volatile
   892  0F52                     l1245:
   893                           
   894                           ;LDC_LIB.c: 15:     PORTD = (((c & 0x0F) << 4) | (PORTD & 0x0F));
   895  0F52  300F               	movlw	15
   896  0F53  0508               	andwf	8,w	;volatile
   897  0F54  00F1               	movwf	??_send_data
   898  0F55  0873               	movf	send_data@c,w
   899  0F56  390F               	andlw	15
   900  0F57  00F2               	movwf	??_send_data+1
   901  0F58  3003               	movlw	3
   902  0F59                     u1225:
   903  0F59  1003               	clrc
   904  0F5A  0DF2               	rlf	??_send_data+1,f
   905  0F5B  3EFF               	addlw	-1
   906  0F5C  1D03               	skipz
   907  0F5D  2F59               	goto	u1225
   908  0F5E  1003               	clrc
   909  0F5F  0D72               	rlf	??_send_data+1,w
   910  0F60  0471               	iorwf	??_send_data,w
   911  0F61  0088               	movwf	8	;volatile
   912  0F62                     l1247:
   913                           
   914                           ;LDC_LIB.c: 16:     RD2 = 0;
   915  0F62  1108               	bcf	8,2	;volatile
   916                           
   917                           ;LDC_LIB.c: 17:     wait();
   918  0F63  120A  118A  2008  120A  158A  	fcall	_wait
   919  0F68                     l18:
   920  0F68  0008               	return
   921  0F69                     __end_of_send_data:
   922                           
   923                           	psect	text2
   924  0F69                     __ptext2:	
   925 ;; *************** function _lcd_prepare *****************
   926 ;; Defined at:
   927 ;;		line 39 in file "LDC_LIB.c"
   928 ;; Parameters:    Size  Location     Type
   929 ;;		None
   930 ;; Auto vars:     Size  Location     Type
   931 ;;		None
   932 ;; Return value:  Size  Location     Type
   933 ;;                  1    wreg      void 
   934 ;; Registers used:
   935 ;;		wreg, status,2, status,0, pclath, cstack
   936 ;; Tracked objects:
   937 ;;		On entry : 0/0
   938 ;;		On exit  : 0/0
   939 ;;		Unchanged: 0/0
   940 ;; Data sizes:     COMMON   BANK0   BANK1   BANK3   BANK2
   941 ;;      Params:         0       0       0       0       0
   942 ;;      Locals:         0       0       0       0       0
   943 ;;      Temps:          2       0       0       0       0
   944 ;;      Totals:         2       0       0       0       0
   945 ;;Total ram usage:        2 bytes
   946 ;; Hardware stack levels used: 1
   947 ;; Hardware stack levels required when called: 3
   948 ;; This function calls:
   949 ;;		_lcd_clean
   950 ;;		_lcd_command
   951 ;; This function is called by:
   952 ;;		_main
   953 ;; This function uses a non-reentrant model
   954 ;;
   955                           
   956                           
   957                           ;psect for function _lcd_prepare
   958  0F69                     _lcd_prepare:
   959  0F69                     l1255:	
   960                           ;incstack = 0
   961                           ; Regs used in _lcd_prepare: [wreg+status,2+status,0+pclath+cstack]
   962                           
   963                           
   964                           ;LDC_LIB.c: 40:     RD0 = 0;
   965  0F69  1283               	bcf	3,5	;RP0=0, select bank0
   966  0F6A  1303               	bcf	3,6	;RP1=0, select bank0
   967  0F6B  1008               	bcf	8,0	;volatile
   968                           
   969                           ;LDC_LIB.c: 41:     RD1 = 0;
   970  0F6C  1088               	bcf	8,1	;volatile
   971                           
   972                           ;LDC_LIB.c: 42:     RD2 = 0;
   973  0F6D  1108               	bcf	8,2	;volatile
   974  0F6E                     l1257:
   975                           
   976                           ;LDC_LIB.c: 43:     _delay((unsigned long)((15)*(4000000/4000.0)));
   977  0F6E  3014               	movlw	20
   978  0F6F  00F7               	movwf	??_lcd_prepare+1
   979  0F70  3079               	movlw	121
   980  0F71  00F6               	movwf	??_lcd_prepare
   981  0F72                     u2357:
   982  0F72  0BF6               	decfsz	??_lcd_prepare,f
   983  0F73  2F72               	goto	u2357
   984  0F74  0BF7               	decfsz	??_lcd_prepare+1,f
   985  0F75  2F72               	goto	u2357
   986  0F76  2F77               	nop2
   987  0F77                     l1259:
   988                           
   989                           ;LDC_LIB.c: 44:     RD2 = 1;
   990  0F77  1283               	bcf	3,5	;RP0=0, select bank0
   991  0F78  1303               	bcf	3,6	;RP1=0, select bank0
   992  0F79  1508               	bsf	8,2	;volatile
   993  0F7A                     l1261:
   994                           
   995                           ;LDC_LIB.c: 45:     lcd_command(0x02);
   996  0F7A  3002               	movlw	2
   997  0F7B  120A  158A  270F  120A  158A  	fcall	_lcd_command
   998  0F80                     l1263:
   999                           
  1000                           ;LDC_LIB.c: 46:     _delay((unsigned long)((2)*(4000000/4000.0)));
  1001  0F80  3003               	movlw	3
  1002  0F81  00F7               	movwf	??_lcd_prepare+1
  1003  0F82  3097               	movlw	151
  1004  0F83  00F6               	movwf	??_lcd_prepare
  1005  0F84                     u2367:
  1006  0F84  0BF6               	decfsz	??_lcd_prepare,f
  1007  0F85  2F84               	goto	u2367
  1008  0F86  0BF7               	decfsz	??_lcd_prepare+1,f
  1009  0F87  2F84               	goto	u2367
  1010  0F88  2F89               	nop2
  1011                           
  1012                           ;LDC_LIB.c: 47:     lcd_command(40);
  1013  0F89  3028               	movlw	40
  1014  0F8A  120A  158A  270F  120A  158A  	fcall	_lcd_command
  1015                           
  1016                           ;LDC_LIB.c: 48:     lcd_command(6);
  1017  0F8F  3006               	movlw	6
  1018  0F90  120A  158A  270F  120A  158A  	fcall	_lcd_command
  1019                           
  1020                           ;LDC_LIB.c: 49:     lcd_command(12);
  1021  0F95  300C               	movlw	12
  1022  0F96  120A  158A  270F  120A  158A  	fcall	_lcd_command
  1023                           
  1024                           ;LDC_LIB.c: 50:     lcd_clean();
  1025  0F9B  120A  158A  26BE  120A  158A  	fcall	_lcd_clean
  1026                           
  1027                           ;LDC_LIB.c: 51:     lcd_command(128);
  1028  0FA0  3080               	movlw	128
  1029  0FA1  120A  158A  270F  120A  158A  	fcall	_lcd_command
  1030  0FA6                     l35:
  1031  0FA6  0008               	return
  1032  0FA7                     __end_of_lcd_prepare:
  1033                           
  1034                           	psect	text3
  1035  0EBE                     __ptext3:	
  1036 ;; *************** function _lcd_clean *****************
  1037 ;; Defined at:
  1038 ;;		line 20 in file "LDC_LIB.c"
  1039 ;; Parameters:    Size  Location     Type
  1040 ;;		None
  1041 ;; Auto vars:     Size  Location     Type
  1042 ;;		None
  1043 ;; Return value:  Size  Location     Type
  1044 ;;                  1    wreg      void 
  1045 ;; Registers used:
  1046 ;;		wreg, status,2, status,0, pclath, cstack
  1047 ;; Tracked objects:
  1048 ;;		On entry : 0/0
  1049 ;;		On exit  : 0/0
  1050 ;;		Unchanged: 0/0
  1051 ;; Data sizes:     COMMON   BANK0   BANK1   BANK3   BANK2
  1052 ;;      Params:         0       0       0       0       0
  1053 ;;      Locals:         0       0       0       0       0
  1054 ;;      Temps:          2       0       0       0       0
  1055 ;;      Totals:         2       0       0       0       0
  1056 ;;Total ram usage:        2 bytes
  1057 ;; Hardware stack levels used: 1
  1058 ;; Hardware stack levels required when called: 2
  1059 ;; This function calls:
  1060 ;;		_lcd_command
  1061 ;; This function is called by:
  1062 ;;		_lcd_prepare
  1063 ;; This function uses a non-reentrant model
  1064 ;;
  1065                           
  1066                           
  1067                           ;psect for function _lcd_clean
  1068  0EBE                     _lcd_clean:
  1069  0EBE                     l1217:	
  1070                           ;incstack = 0
  1071                           ; Regs used in _lcd_clean: [wreg+status,2+status,0+pclath+cstack]
  1072                           
  1073                           
  1074                           ;LDC_LIB.c: 21:     lcd_command(1);
  1075  0EBE  3001               	movlw	1
  1076  0EBF  120A  158A  270F  120A  158A  	fcall	_lcd_command
  1077  0EC4                     l1219:
  1078                           
  1079                           ;LDC_LIB.c: 22:     _delay((unsigned long)((2)*(4000000/4000.0)));
  1080  0EC4  3003               	movlw	3
  1081  0EC5  00F5               	movwf	??_lcd_clean+1
  1082  0EC6  3097               	movlw	151
  1083  0EC7  00F4               	movwf	??_lcd_clean
  1084  0EC8                     u2377:
  1085  0EC8  0BF4               	decfsz	??_lcd_clean,f
  1086  0EC9  2EC8               	goto	u2377
  1087  0ECA  0BF5               	decfsz	??_lcd_clean+1,f
  1088  0ECB  2EC8               	goto	u2377
  1089  0ECC  2ECD               	nop2
  1090  0ECD                     l21:
  1091  0ECD  0008               	return
  1092  0ECE                     __end_of_lcd_clean:
  1093                           
  1094                           	psect	text4
  1095  0ECE                     __ptext4:	
  1096 ;; *************** function _lcd_gotoxy *****************
  1097 ;; Defined at:
  1098 ;;		line 32 in file "LDC_LIB.c"
  1099 ;; Parameters:    Size  Location     Type
  1100 ;;  x               1    wreg     unsigned char 
  1101 ;;  y               1    4[COMMON] unsigned char 
  1102 ;; Auto vars:     Size  Location     Type
  1103 ;;  x               1    5[COMMON] unsigned char 
  1104 ;; Return value:  Size  Location     Type
  1105 ;;                  1    wreg      void 
  1106 ;; Registers used:
  1107 ;;		wreg, status,2, status,0, pclath, cstack
  1108 ;; Tracked objects:
  1109 ;;		On entry : 0/0
  1110 ;;		On exit  : 0/0
  1111 ;;		Unchanged: 0/0
  1112 ;; Data sizes:     COMMON   BANK0   BANK1   BANK3   BANK2
  1113 ;;      Params:         1       0       0       0       0
  1114 ;;      Locals:         1       0       0       0       0
  1115 ;;      Temps:          0       0       0       0       0
  1116 ;;      Totals:         2       0       0       0       0
  1117 ;;Total ram usage:        2 bytes
  1118 ;; Hardware stack levels used: 1
  1119 ;; Hardware stack levels required when called: 2
  1120 ;; This function calls:
  1121 ;;		_lcd_command
  1122 ;; This function is called by:
  1123 ;;		_main
  1124 ;; This function uses a non-reentrant model
  1125 ;;
  1126                           
  1127                           
  1128                           ;psect for function _lcd_gotoxy
  1129  0ECE                     _lcd_gotoxy:
  1130                           
  1131                           ;incstack = 0
  1132                           ; Regs used in _lcd_gotoxy: [wreg+status,2+status,0+pclath+cstack]
  1133                           ;lcd_gotoxy@x stored from wreg
  1134  0ECE  00F5               	movwf	lcd_gotoxy@x
  1135  0ECF                     l1249:
  1136                           
  1137                           ;LDC_LIB.c: 33:     if(x == 1)
  1138  0ECF  0375               	decf	lcd_gotoxy@x,w
  1139  0ED0  1D03               	btfss	3,2
  1140  0ED1  2ED3               	goto	u1231
  1141  0ED2  2ED4               	goto	u1230
  1142  0ED3                     u1231:
  1143  0ED3  2EDE               	goto	l1253
  1144  0ED4                     u1230:
  1145  0ED4                     l1251:
  1146                           
  1147                           ;LDC_LIB.c: 34:         lcd_command(0x80 + ((y - 1) % 16));
  1148  0ED4  0874               	movf	lcd_gotoxy@y,w
  1149  0ED5  3EFF               	addlw	255
  1150  0ED6  390F               	andlw	15
  1151  0ED7  3E80               	addlw	128
  1152  0ED8  120A  158A  270F  120A  158A  	fcall	_lcd_command
  1153  0EDD  2EE7               	goto	l32
  1154  0EDE                     l1253:
  1155                           
  1156                           ;LDC_LIB.c: 36:         lcd_command(0xC0 + ((y - 1) % 16));
  1157  0EDE  0874               	movf	lcd_gotoxy@y,w
  1158  0EDF  3EFF               	addlw	255
  1159  0EE0  390F               	andlw	15
  1160  0EE1  3EC0               	addlw	192
  1161  0EE2  120A  158A  270F  120A  158A  	fcall	_lcd_command
  1162  0EE7                     l32:
  1163  0EE7  0008               	return
  1164  0EE8                     __end_of_lcd_gotoxy:
  1165                           
  1166                           	psect	text5
  1167  0F0F                     __ptext5:	
  1168 ;; *************** function _lcd_command *****************
  1169 ;; Defined at:
  1170 ;;		line 54 in file "LDC_LIB.c"
  1171 ;; Parameters:    Size  Location     Type
  1172 ;;  c               1    wreg     unsigned char 
  1173 ;; Auto vars:     Size  Location     Type
  1174 ;;  c               1    3[COMMON] unsigned char 
  1175 ;; Return value:  Size  Location     Type
  1176 ;;                  1    wreg      void 
  1177 ;; Registers used:
  1178 ;;		wreg, status,2, status,0, pclath, cstack
  1179 ;; Tracked objects:
  1180 ;;		On entry : 0/0
  1181 ;;		On exit  : 0/0
  1182 ;;		Unchanged: 0/0
  1183 ;; Data sizes:     COMMON   BANK0   BANK1   BANK3   BANK2
  1184 ;;      Params:         0       0       0       0       0
  1185 ;;      Locals:         1       0       0       0       0
  1186 ;;      Temps:          2       0       0       0       0
  1187 ;;      Totals:         3       0       0       0       0
  1188 ;;Total ram usage:        3 bytes
  1189 ;; Hardware stack levels used: 1
  1190 ;; Hardware stack levels required when called: 1
  1191 ;; This function calls:
  1192 ;;		_wait
  1193 ;; This function is called by:
  1194 ;;		_lcd_clean
  1195 ;;		_lcd_gotoxy
  1196 ;;		_lcd_prepare
  1197 ;; This function uses a non-reentrant model
  1198 ;;
  1199                           
  1200                           
  1201                           ;psect for function _lcd_command
  1202  0F0F                     _lcd_command:
  1203                           
  1204                           ;incstack = 0
  1205                           ; Regs used in _lcd_command: [wreg+status,2+status,0+pclath+cstack]
  1206                           ;lcd_command@c stored from wreg
  1207  0F0F  00F3               	movwf	lcd_command@c
  1208  0F10                     l1203:
  1209                           
  1210                           ;LDC_LIB.c: 55:     RD1 = 0;
  1211  0F10  1283               	bcf	3,5	;RP0=0, select bank0
  1212  0F11  1303               	bcf	3,6	;RP1=0, select bank0
  1213  0F12  1088               	bcf	8,1	;volatile
  1214                           
  1215                           ;LDC_LIB.c: 56:     RD0 = 0;
  1216  0F13  1008               	bcf	8,0	;volatile
  1217                           
  1218                           ;LDC_LIB.c: 57:     RD2 = 1;
  1219  0F14  1508               	bsf	8,2	;volatile
  1220  0F15                     l1205:
  1221                           
  1222                           ;LDC_LIB.c: 58:     PORTD = ((c & 0xF0) | (PORTD & 0x0F));
  1223  0F15  300F               	movlw	15
  1224  0F16  0508               	andwf	8,w	;volatile
  1225  0F17  00F1               	movwf	??_lcd_command
  1226  0F18  0873               	movf	lcd_command@c,w
  1227  0F19  39F0               	andlw	240
  1228  0F1A  0471               	iorwf	??_lcd_command,w
  1229  0F1B  0088               	movwf	8	;volatile
  1230  0F1C                     l1207:
  1231                           
  1232                           ;LDC_LIB.c: 59:     RD2 = 0;
  1233  0F1C  1108               	bcf	8,2	;volatile
  1234  0F1D                     l1209:
  1235                           
  1236                           ;LDC_LIB.c: 60:     wait();
  1237  0F1D  120A  118A  2008  120A  158A  	fcall	_wait
  1238  0F22                     l1211:
  1239                           
  1240                           ;LDC_LIB.c: 61:     RD2 = 1;
  1241  0F22  1283               	bcf	3,5	;RP0=0, select bank0
  1242  0F23  1303               	bcf	3,6	;RP1=0, select bank0
  1243  0F24  1508               	bsf	8,2	;volatile
  1244  0F25                     l1213:
  1245                           
  1246                           ;LDC_LIB.c: 62:     PORTD = (((c & 0x0F) << 4) | (PORTD & 0x0F));
  1247  0F25  300F               	movlw	15
  1248  0F26  0508               	andwf	8,w	;volatile
  1249  0F27  00F1               	movwf	??_lcd_command
  1250  0F28  0873               	movf	lcd_command@c,w
  1251  0F29  390F               	andlw	15
  1252  0F2A  00F2               	movwf	??_lcd_command+1
  1253  0F2B  3003               	movlw	3
  1254  0F2C                     u1185:
  1255  0F2C  1003               	clrc
  1256  0F2D  0DF2               	rlf	??_lcd_command+1,f
  1257  0F2E  3EFF               	addlw	-1
  1258  0F2F  1D03               	skipz
  1259  0F30  2F2C               	goto	u1185
  1260  0F31  1003               	clrc
  1261  0F32  0D72               	rlf	??_lcd_command+1,w
  1262  0F33  0471               	iorwf	??_lcd_command,w
  1263  0F34  0088               	movwf	8	;volatile
  1264  0F35                     l1215:
  1265                           
  1266                           ;LDC_LIB.c: 63:     RD2 = 0;
  1267  0F35  1108               	bcf	8,2	;volatile
  1268                           
  1269                           ;LDC_LIB.c: 64:     wait();
  1270  0F36  120A  118A  2008  120A  158A  	fcall	_wait
  1271  0F3B                     l38:
  1272  0F3B  0008               	return
  1273  0F3C                     __end_of_lcd_command:
  1274                           
  1275                           	psect	text6
  1276  0008                     __ptext6:	
  1277 ;; *************** function _wait *****************
  1278 ;; Defined at:
  1279 ;;		line 3 in file "LDC_LIB.c"
  1280 ;; Parameters:    Size  Location     Type
  1281 ;;		None
  1282 ;; Auto vars:     Size  Location     Type
  1283 ;;		None
  1284 ;; Return value:  Size  Location     Type
  1285 ;;                  1    wreg      void 
  1286 ;; Registers used:
  1287 ;;		wreg
  1288 ;; Tracked objects:
  1289 ;;		On entry : 0/0
  1290 ;;		On exit  : 0/0
  1291 ;;		Unchanged: 0/0
  1292 ;; Data sizes:     COMMON   BANK0   BANK1   BANK3   BANK2
  1293 ;;      Params:         0       0       0       0       0
  1294 ;;      Locals:         0       0       0       0       0
  1295 ;;      Temps:          1       0       0       0       0
  1296 ;;      Totals:         1       0       0       0       0
  1297 ;;Total ram usage:        1 bytes
  1298 ;; Hardware stack levels used: 1
  1299 ;; This function calls:
  1300 ;;		Nothing
  1301 ;; This function is called by:
  1302 ;;		_send_data
  1303 ;;		_lcd_command
  1304 ;;		_lcd_write
  1305 ;; This function uses a non-reentrant model
  1306 ;;
  1307                           
  1308                           
  1309                           ;psect for function _wait
  1310  0008                     _wait:
  1311  0008                     l1201:	
  1312                           ;incstack = 0
  1313                           ; Regs used in _wait: [wreg]
  1314                           
  1315                           
  1316                           ;LDC_LIB.c: 4:     _delay((unsigned long)((250)*(4000000/4000000.0)));
  1317  0008  3053               	movlw	83
  1318  0009  00F0               	movwf	??_wait
  1319  000A                     u2387:
  1320  000A  0BF0               	decfsz	??_wait,f
  1321  000B  280A               	goto	u2387
  1322  000C                     l15:
  1323  000C  0008               	return
  1324  000D                     __end_of_wait:
  1325                           
  1326                           	psect	text7
  1327  00F0                     __ptext7:	
  1328 ;; *************** function ___xxtofl *****************
  1329 ;; Defined at:
  1330 ;;		line 10 in file "C:\Program Files\Microchip\xc8\v2.32\pic\sources\c90\common\xxtofl.c"
  1331 ;; Parameters:    Size  Location     Type
  1332 ;;  sign            1    wreg     unsigned char 
  1333 ;;  val             4    0[COMMON] long 
  1334 ;; Auto vars:     Size  Location     Type
  1335 ;;  sign            1    8[COMMON] unsigned char 
  1336 ;;  arg             4   10[COMMON] unsigned long 
  1337 ;;  exp             1    9[COMMON] unsigned char 
  1338 ;; Return value:  Size  Location     Type
  1339 ;;                  4    0[COMMON] unsigned char 
  1340 ;; Registers used:
  1341 ;;		wreg, status,2, status,0
  1342 ;; Tracked objects:
  1343 ;;		On entry : 0/0
  1344 ;;		On exit  : 0/0
  1345 ;;		Unchanged: 0/0
  1346 ;; Data sizes:     COMMON   BANK0   BANK1   BANK3   BANK2
  1347 ;;      Params:         4       0       0       0       0
  1348 ;;      Locals:         6       0       0       0       0
  1349 ;;      Temps:          4       0       0       0       0
  1350 ;;      Totals:        14       0       0       0       0
  1351 ;;Total ram usage:       14 bytes
  1352 ;; Hardware stack levels used: 1
  1353 ;; This function calls:
  1354 ;;		Nothing
  1355 ;; This function is called by:
  1356 ;;		_main
  1357 ;; This function uses a non-reentrant model
  1358 ;;
  1359                           
  1360                           
  1361                           ;psect for function ___xxtofl
  1362  00F0                     ___xxtofl:
  1363                           
  1364                           ;incstack = 0
  1365                           ; Regs used in ___xxtofl: [wreg+status,2+status,0]
  1366                           ;___xxtofl@sign stored from wreg
  1367  00F0  00F8               	movwf	___xxtofl@sign
  1368  00F1                     l1665:
  1369  00F1  0878               	movf	___xxtofl@sign,w
  1370  00F2  1903               	btfsc	3,2
  1371  00F3  28F5               	goto	u2191
  1372  00F4  28F6               	goto	u2190
  1373  00F5                     u2191:
  1374  00F5  290A               	goto	l1671
  1375  00F6                     u2190:
  1376  00F6                     l1667:
  1377  00F6  1FF3               	btfss	___xxtofl@val+3,7
  1378  00F7  28F9               	goto	u2201
  1379  00F8  28FA               	goto	u2200
  1380  00F9                     u2201:
  1381  00F9  290A               	goto	l1671
  1382  00FA                     u2200:
  1383  00FA                     l1669:
  1384  00FA  0970               	comf	___xxtofl@val,w
  1385  00FB  00FA               	movwf	___xxtofl@arg
  1386  00FC  0971               	comf	___xxtofl@val+1,w
  1387  00FD  00FB               	movwf	___xxtofl@arg+1
  1388  00FE  0972               	comf	___xxtofl@val+2,w
  1389  00FF  00FC               	movwf	___xxtofl@arg+2
  1390  0100  0973               	comf	___xxtofl@val+3,w
  1391  0101  00FD               	movwf	___xxtofl@arg+3
  1392  0102  0AFA               	incf	___xxtofl@arg,f
  1393  0103  1903               	skipnz
  1394  0104  0AFB               	incf	___xxtofl@arg+1,f
  1395  0105  1903               	skipnz
  1396  0106  0AFC               	incf	___xxtofl@arg+2,f
  1397  0107  1903               	skipnz
  1398  0108  0AFD               	incf	___xxtofl@arg+3,f
  1399  0109  2912               	goto	l588
  1400  010A                     l1671:
  1401  010A  0873               	movf	___xxtofl@val+3,w
  1402  010B  00FD               	movwf	___xxtofl@arg+3
  1403  010C  0872               	movf	___xxtofl@val+2,w
  1404  010D  00FC               	movwf	___xxtofl@arg+2
  1405  010E  0871               	movf	___xxtofl@val+1,w
  1406  010F  00FB               	movwf	___xxtofl@arg+1
  1407  0110  0870               	movf	___xxtofl@val,w
  1408  0111  00FA               	movwf	___xxtofl@arg
  1409  0112                     l588:
  1410  0112  0873               	movf	___xxtofl@val+3,w
  1411  0113  0472               	iorwf	___xxtofl@val+2,w
  1412  0114  0471               	iorwf	___xxtofl@val+1,w
  1413  0115  0470               	iorwf	___xxtofl@val,w
  1414  0116  1D03               	skipz
  1415  0117  2919               	goto	u2211
  1416  0118  291A               	goto	u2210
  1417  0119                     u2211:
  1418  0119  2923               	goto	l1677
  1419  011A                     u2210:
  1420  011A                     l1673:
  1421  011A  3000               	movlw	0
  1422  011B  00F3               	movwf	?___xxtofl+3
  1423  011C  3000               	movlw	0
  1424  011D  00F2               	movwf	?___xxtofl+2
  1425  011E  3000               	movlw	0
  1426  011F  00F1               	movwf	?___xxtofl+1
  1427  0120  3000               	movlw	0
  1428  0121  00F0               	movwf	?___xxtofl
  1429  0122  29A9               	goto	l590
  1430  0123                     l1677:
  1431  0123  3096               	movlw	150
  1432  0124  00F4               	movwf	??___xxtofl
  1433  0125  0874               	movf	??___xxtofl,w
  1434  0126  00F9               	movwf	___xxtofl@exp
  1435  0127  2935               	goto	l1681
  1436  0128                     l1679:
  1437  0128  3001               	movlw	1
  1438  0129  00F4               	movwf	??___xxtofl
  1439  012A  0874               	movf	??___xxtofl,w
  1440  012B  07F9               	addwf	___xxtofl@exp,f
  1441  012C  3001               	movlw	1
  1442  012D                     u2225:
  1443  012D  1003               	clrc
  1444  012E  0CFD               	rrf	___xxtofl@arg+3,f
  1445  012F  0CFC               	rrf	___xxtofl@arg+2,f
  1446  0130  0CFB               	rrf	___xxtofl@arg+1,f
  1447  0131  0CFA               	rrf	___xxtofl@arg,f
  1448  0132  3EFF               	addlw	-1
  1449  0133  1D03               	skipz
  1450  0134  292D               	goto	u2225
  1451  0135                     l1681:
  1452  0135  30FE               	movlw	254
  1453  0136  057D               	andwf	___xxtofl@arg+3,w
  1454  0137  1D03               	btfss	3,2
  1455  0138  293A               	goto	u2231
  1456  0139  293B               	goto	u2230
  1457  013A                     u2231:
  1458  013A  2928               	goto	l1679
  1459  013B                     u2230:
  1460  013B  2957               	goto	l594
  1461  013C                     l1683:
  1462  013C  3001               	movlw	1
  1463  013D  00F4               	movwf	??___xxtofl
  1464  013E  0874               	movf	??___xxtofl,w
  1465  013F  07F9               	addwf	___xxtofl@exp,f
  1466  0140                     l1685:
  1467  0140  3001               	movlw	1
  1468  0141  07FA               	addwf	___xxtofl@arg,f
  1469  0142  3000               	movlw	0
  1470  0143  1803               	skipnc
  1471  0144  3001               	movlw	1
  1472  0145  07FB               	addwf	___xxtofl@arg+1,f
  1473  0146  3000               	movlw	0
  1474  0147  1803               	skipnc
  1475  0148  3001               	movlw	1
  1476  0149  07FC               	addwf	___xxtofl@arg+2,f
  1477  014A  3000               	movlw	0
  1478  014B  1803               	skipnc
  1479  014C  3001               	movlw	1
  1480  014D  07FD               	addwf	___xxtofl@arg+3,f
  1481  014E                     l1687:
  1482  014E  3001               	movlw	1
  1483  014F                     u2245:
  1484  014F  1003               	clrc
  1485  0150  0CFD               	rrf	___xxtofl@arg+3,f
  1486  0151  0CFC               	rrf	___xxtofl@arg+2,f
  1487  0152  0CFB               	rrf	___xxtofl@arg+1,f
  1488  0153  0CFA               	rrf	___xxtofl@arg,f
  1489  0154  3EFF               	addlw	-1
  1490  0155  1D03               	skipz
  1491  0156  294F               	goto	u2245
  1492  0157                     l594:
  1493  0157  30FF               	movlw	255
  1494  0158  057D               	andwf	___xxtofl@arg+3,w
  1495  0159  1D03               	btfss	3,2
  1496  015A  295C               	goto	u2251
  1497  015B  295D               	goto	u2250
  1498  015C                     u2251:
  1499  015C  293C               	goto	l1683
  1500  015D                     u2250:
  1501  015D  2969               	goto	l1691
  1502  015E                     l1689:
  1503  015E  3001               	movlw	1
  1504  015F  02F9               	subwf	___xxtofl@exp,f
  1505  0160  3001               	movlw	1
  1506  0161  00F4               	movwf	??___xxtofl
  1507  0162                     u2265:
  1508  0162  1003               	clrc
  1509  0163  0DFA               	rlf	___xxtofl@arg,f
  1510  0164  0DFB               	rlf	___xxtofl@arg+1,f
  1511  0165  0DFC               	rlf	___xxtofl@arg+2,f
  1512  0166  0DFD               	rlf	___xxtofl@arg+3,f
  1513  0167  0BF4               	decfsz	??___xxtofl,f
  1514  0168  2962               	goto	u2265
  1515  0169                     l1691:
  1516  0169  1BFC               	btfsc	___xxtofl@arg+2,7
  1517  016A  296C               	goto	u2271
  1518  016B  296D               	goto	u2270
  1519  016C                     u2271:
  1520  016C  2973               	goto	l601
  1521  016D                     u2270:
  1522  016D                     l1693:
  1523  016D  3002               	movlw	2
  1524  016E  0279               	subwf	___xxtofl@exp,w
  1525  016F  1803               	skipnc
  1526  0170  2972               	goto	u2281
  1527  0171  2973               	goto	u2280
  1528  0172                     u2281:
  1529  0172  295E               	goto	l1689
  1530  0173                     u2280:
  1531  0173                     l601:
  1532  0173  1879               	btfsc	___xxtofl@exp,0
  1533  0174  2976               	goto	u2291
  1534  0175  2977               	goto	u2290
  1535  0176                     u2291:
  1536  0176  297F               	goto	l602
  1537  0177                     u2290:
  1538  0177                     l1695:
  1539  0177  30FF               	movlw	255
  1540  0178  05FA               	andwf	___xxtofl@arg,f
  1541  0179  30FF               	movlw	255
  1542  017A  05FB               	andwf	___xxtofl@arg+1,f
  1543  017B  307F               	movlw	127
  1544  017C  05FC               	andwf	___xxtofl@arg+2,f
  1545  017D  30FF               	movlw	255
  1546  017E  05FD               	andwf	___xxtofl@arg+3,f
  1547  017F                     l602:
  1548  017F  1003               	clrc
  1549  0180  0CF9               	rrf	___xxtofl@exp,f
  1550  0181                     l1697:
  1551  0181  0879               	movf	___xxtofl@exp,w
  1552  0182  00F4               	movwf	??___xxtofl
  1553  0183  01F5               	clrf	??___xxtofl+1
  1554  0184  01F6               	clrf	??___xxtofl+2
  1555  0185  01F7               	clrf	??___xxtofl+3
  1556  0186  3018               	movlw	24
  1557  0187                     u2305:
  1558  0187  1003               	clrc
  1559  0188  0DF4               	rlf	??___xxtofl,f
  1560  0189  0DF5               	rlf	??___xxtofl+1,f
  1561  018A  0DF6               	rlf	??___xxtofl+2,f
  1562  018B  0DF7               	rlf	??___xxtofl+3,f
  1563  018C                     u2300:
  1564  018C  3EFF               	addlw	-1
  1565  018D  1D03               	skipz
  1566  018E  2987               	goto	u2305
  1567  018F  0874               	movf	??___xxtofl,w
  1568  0190  04FA               	iorwf	___xxtofl@arg,f
  1569  0191  0875               	movf	??___xxtofl+1,w
  1570  0192  04FB               	iorwf	___xxtofl@arg+1,f
  1571  0193  0876               	movf	??___xxtofl+2,w
  1572  0194  04FC               	iorwf	___xxtofl@arg+2,f
  1573  0195  0877               	movf	??___xxtofl+3,w
  1574  0196  04FD               	iorwf	___xxtofl@arg+3,f
  1575  0197                     l1699:
  1576  0197  0878               	movf	___xxtofl@sign,w
  1577  0198  1903               	btfsc	3,2
  1578  0199  299B               	goto	u2311
  1579  019A  299C               	goto	u2310
  1580  019B                     u2311:
  1581  019B  29A1               	goto	l1705
  1582  019C                     u2310:
  1583  019C                     l1701:
  1584  019C  1FF3               	btfss	___xxtofl@val+3,7
  1585  019D  299F               	goto	u2321
  1586  019E  29A0               	goto	u2320
  1587  019F                     u2321:
  1588  019F  29A1               	goto	l1705
  1589  01A0                     u2320:
  1590  01A0                     l1703:
  1591  01A0  17FD               	bsf	___xxtofl@arg+3,7
  1592  01A1                     l1705:
  1593  01A1  087D               	movf	___xxtofl@arg+3,w
  1594  01A2  00F3               	movwf	?___xxtofl+3
  1595  01A3  087C               	movf	___xxtofl@arg+2,w
  1596  01A4  00F2               	movwf	?___xxtofl+2
  1597  01A5  087B               	movf	___xxtofl@arg+1,w
  1598  01A6  00F1               	movwf	?___xxtofl+1
  1599  01A7  087A               	movf	___xxtofl@arg,w
  1600  01A8  00F0               	movwf	?___xxtofl
  1601  01A9                     l590:
  1602  01A9  0008               	return
  1603  01AA                     __end_of___xxtofl:
  1604                           
  1605                           	psect	text8
  1606  0076                     __ptext8:	
  1607 ;; *************** function ___fltol *****************
  1608 ;; Defined at:
  1609 ;;		line 43 in file "C:\Program Files\Microchip\xc8\v2.32\pic\sources\c90\common\fltol.c"
  1610 ;; Parameters:    Size  Location     Type
  1611 ;;  f1              4    0[COMMON] unsigned char 
  1612 ;; Auto vars:     Size  Location     Type
  1613 ;;  exp1            1   10[COMMON] unsigned char 
  1614 ;;  sign1           1    9[COMMON] unsigned char 
  1615 ;; Return value:  Size  Location     Type
  1616 ;;                  4    0[COMMON] long 
  1617 ;; Registers used:
  1618 ;;		wreg, status,2, status,0
  1619 ;; Tracked objects:
  1620 ;;		On entry : 0/0
  1621 ;;		On exit  : 0/0
  1622 ;;		Unchanged: 0/0
  1623 ;; Data sizes:     COMMON   BANK0   BANK1   BANK3   BANK2
  1624 ;;      Params:         4       0       0       0       0
  1625 ;;      Locals:         2       0       0       0       0
  1626 ;;      Temps:          5       0       0       0       0
  1627 ;;      Totals:        11       0       0       0       0
  1628 ;;Total ram usage:       11 bytes
  1629 ;; Hardware stack levels used: 1
  1630 ;; This function calls:
  1631 ;;		Nothing
  1632 ;; This function is called by:
  1633 ;;		_main
  1634 ;; This function uses a non-reentrant model
  1635 ;;
  1636                           
  1637                           
  1638                           ;psect for function ___fltol
  1639  0076                     ___fltol:
  1640  0076                     l1347:	
  1641                           ;incstack = 0
  1642                           ; Regs used in ___fltol: [wreg+status,2+status,0]
  1643                           
  1644  0076  1003               	clrc
  1645  0077  0D72               	rlf	___fltol@f1+2,w
  1646  0078  0D73               	rlf	___fltol@f1+3,w
  1647  0079  00F4               	movwf	??___fltol
  1648  007A  0874               	movf	??___fltol,w
  1649  007B  00FA               	movwf	___fltol@exp1
  1650  007C  087A               	movf	___fltol@exp1,w
  1651  007D  1D03               	btfss	3,2
  1652  007E  2880               	goto	u1431
  1653  007F  2881               	goto	u1430
  1654  0080                     u1431:
  1655  0080  288A               	goto	l1353
  1656  0081                     u1430:
  1657  0081                     l1349:
  1658  0081  3000               	movlw	0
  1659  0082  00F3               	movwf	?___fltol+3
  1660  0083  3000               	movlw	0
  1661  0084  00F2               	movwf	?___fltol+2
  1662  0085  3000               	movlw	0
  1663  0086  00F1               	movwf	?___fltol+1
  1664  0087  3000               	movlw	0
  1665  0088  00F0               	movwf	?___fltol
  1666  0089  28EF               	goto	l341
  1667  008A                     l1353:
  1668  008A  0870               	movf	___fltol@f1,w
  1669  008B  00F4               	movwf	??___fltol
  1670  008C  0871               	movf	___fltol@f1+1,w
  1671  008D  00F5               	movwf	??___fltol+1
  1672  008E  0872               	movf	___fltol@f1+2,w
  1673  008F  00F6               	movwf	??___fltol+2
  1674  0090  0873               	movf	___fltol@f1+3,w
  1675  0091  00F7               	movwf	??___fltol+3
  1676  0092  301F               	movlw	31
  1677  0093                     u1445:
  1678  0093  1003               	clrc
  1679  0094  0CF7               	rrf	??___fltol+3,f
  1680  0095  0CF6               	rrf	??___fltol+2,f
  1681  0096  0CF5               	rrf	??___fltol+1,f
  1682  0097  0CF4               	rrf	??___fltol,f
  1683  0098                     u1440:
  1684  0098  3EFF               	addlw	-1
  1685  0099  1D03               	skipz
  1686  009A  2893               	goto	u1445
  1687  009B  0874               	movf	??___fltol,w
  1688  009C  00F8               	movwf	??___fltol+4
  1689  009D  0878               	movf	??___fltol+4,w
  1690  009E  00F9               	movwf	___fltol@sign1
  1691  009F                     l1355:
  1692  009F  17F2               	bsf	___fltol@f1+2,7
  1693  00A0                     l1357:
  1694  00A0  30FF               	movlw	255
  1695  00A1  05F0               	andwf	___fltol@f1,f
  1696  00A2  30FF               	movlw	255
  1697  00A3  05F1               	andwf	___fltol@f1+1,f
  1698  00A4  30FF               	movlw	255
  1699  00A5  05F2               	andwf	___fltol@f1+2,f
  1700  00A6  3000               	movlw	0
  1701  00A7  05F3               	andwf	___fltol@f1+3,f
  1702  00A8                     l1359:
  1703  00A8  3096               	movlw	150
  1704  00A9  02FA               	subwf	___fltol@exp1,f
  1705  00AA                     l1361:
  1706  00AA  1FFA               	btfss	___fltol@exp1,7
  1707  00AB  28AD               	goto	u1451
  1708  00AC  28AE               	goto	u1450
  1709  00AD                     u1451:
  1710  00AD  28C8               	goto	l1371
  1711  00AE                     u1450:
  1712  00AE                     l1363:
  1713  00AE  087A               	movf	___fltol@exp1,w
  1714  00AF  3A80               	xorlw	128
  1715  00B0  3E97               	addlw	151
  1716  00B1  1803               	skipnc
  1717  00B2  28B4               	goto	u1461
  1718  00B3  28B5               	goto	u1460
  1719  00B4                     u1461:
  1720  00B4  28B6               	goto	l1369
  1721  00B5                     u1460:
  1722  00B5  2881               	goto	l1349
  1723  00B6                     l1369:
  1724  00B6  3001               	movlw	1
  1725  00B7                     u1475:
  1726  00B7  1003               	clrc
  1727  00B8  0CF3               	rrf	___fltol@f1+3,f
  1728  00B9  0CF2               	rrf	___fltol@f1+2,f
  1729  00BA  0CF1               	rrf	___fltol@f1+1,f
  1730  00BB  0CF0               	rrf	___fltol@f1,f
  1731  00BC  3EFF               	addlw	-1
  1732  00BD  1D03               	skipz
  1733  00BE  28B7               	goto	u1475
  1734  00BF  3001               	movlw	1
  1735  00C0  00F4               	movwf	??___fltol
  1736  00C1  0874               	movf	??___fltol,w
  1737  00C2  07FA               	addwf	___fltol@exp1,f
  1738  00C3  1D03               	btfss	3,2
  1739  00C4  28C6               	goto	u1481
  1740  00C5  28C7               	goto	u1480
  1741  00C6                     u1481:
  1742  00C6  28B6               	goto	l1369
  1743  00C7                     u1480:
  1744  00C7  28DF               	goto	l1379
  1745  00C8                     l1371:
  1746  00C8  3020               	movlw	32
  1747  00C9  027A               	subwf	___fltol@exp1,w
  1748  00CA  1C03               	skipc
  1749  00CB  28CD               	goto	u1491
  1750  00CC  28CE               	goto	u1490
  1751  00CD                     u1491:
  1752  00CD  28DA               	goto	l348
  1753  00CE                     u1490:
  1754  00CE  2881               	goto	l1349
  1755  00CF                     l1377:
  1756  00CF  3001               	movlw	1
  1757  00D0  00F4               	movwf	??___fltol
  1758  00D1                     u1505:
  1759  00D1  1003               	clrc
  1760  00D2  0DF0               	rlf	___fltol@f1,f
  1761  00D3  0DF1               	rlf	___fltol@f1+1,f
  1762  00D4  0DF2               	rlf	___fltol@f1+2,f
  1763  00D5  0DF3               	rlf	___fltol@f1+3,f
  1764  00D6  0BF4               	decfsz	??___fltol,f
  1765  00D7  28D1               	goto	u1505
  1766  00D8  3001               	movlw	1
  1767  00D9  02FA               	subwf	___fltol@exp1,f
  1768  00DA                     l348:
  1769  00DA  087A               	movf	___fltol@exp1,w
  1770  00DB  1D03               	btfss	3,2
  1771  00DC  28DE               	goto	u1511
  1772  00DD  28DF               	goto	u1510
  1773  00DE                     u1511:
  1774  00DE  28CF               	goto	l1377
  1775  00DF                     u1510:
  1776  00DF                     l1379:
  1777  00DF  0879               	movf	___fltol@sign1,w
  1778  00E0  1903               	btfsc	3,2
  1779  00E1  28E3               	goto	u1521
  1780  00E2  28E4               	goto	u1520
  1781  00E3                     u1521:
  1782  00E3  28EF               	goto	l351
  1783  00E4                     u1520:
  1784  00E4                     l1381:
  1785  00E4  09F0               	comf	___fltol@f1,f
  1786  00E5  09F1               	comf	___fltol@f1+1,f
  1787  00E6  09F2               	comf	___fltol@f1+2,f
  1788  00E7  09F3               	comf	___fltol@f1+3,f
  1789  00E8  0AF0               	incf	___fltol@f1,f
  1790  00E9  1903               	skipnz
  1791  00EA  0AF1               	incf	___fltol@f1+1,f
  1792  00EB  1903               	skipnz
  1793  00EC  0AF2               	incf	___fltol@f1+2,f
  1794  00ED  1903               	skipnz
  1795  00EE  0AF3               	incf	___fltol@f1+3,f
  1796  00EF                     l351:
  1797  00EF                     l341:
  1798  00EF  0008               	return
  1799  00F0                     __end_of___fltol:
  1800                           
  1801                           	psect	text9
  1802  049B                     __ptext9:	
  1803 ;; *************** function ___flmul *****************
  1804 ;; Defined at:
  1805 ;;		line 8 in file "C:\Program Files\Microchip\xc8\v2.32\pic\sources\c90\common\sprcmul.c"
  1806 ;; Parameters:    Size  Location     Type
  1807 ;;  b               4    0[BANK0 ] long 
  1808 ;;  a               4    4[BANK0 ] long 
  1809 ;; Auto vars:     Size  Location     Type
  1810 ;;  prod            4   20[BANK0 ] struct .
  1811 ;;  grs             4   14[BANK0 ] unsigned long 
  1812 ;;  temp            2   24[BANK0 ] struct .
  1813 ;;  bexp            1   19[BANK0 ] unsigned char 
  1814 ;;  aexp            1   18[BANK0 ] unsigned char 
  1815 ;;  sign            1   13[BANK0 ] unsigned char 
  1816 ;; Return value:  Size  Location     Type
  1817 ;;                  4    0[BANK0 ] unsigned char 
  1818 ;; Registers used:
  1819 ;;		wreg, status,2, status,0, btemp+1, pclath, cstack
  1820 ;; Tracked objects:
  1821 ;;		On entry : 0/0
  1822 ;;		On exit  : 0/0
  1823 ;;		Unchanged: 0/0
  1824 ;; Data sizes:     COMMON   BANK0   BANK1   BANK3   BANK2
  1825 ;;      Params:         0       8       0       0       0
  1826 ;;      Locals:         0      13       0       0       0
  1827 ;;      Temps:          0       5       0       0       0
  1828 ;;      Totals:         0      26       0       0       0
  1829 ;;Total ram usage:       26 bytes
  1830 ;; Hardware stack levels used: 1
  1831 ;; Hardware stack levels required when called: 1
  1832 ;; This function calls:
  1833 ;;		__Umul8_16
  1834 ;; This function is called by:
  1835 ;;		_main
  1836 ;; This function uses a non-reentrant model
  1837 ;;
  1838                           
  1839                           
  1840                           ;psect for function ___flmul
  1841  049B                     ___flmul:
  1842  049B                     l1525:	
  1843                           ;incstack = 0
  1844                           ; Regs used in ___flmul: [wreg+status,2+status,0+btemp+1+pclath+cstack]
  1845                           
  1846  049B  1283               	bcf	3,5	;RP0=0, select bank0
  1847  049C  1303               	bcf	3,6	;RP1=0, select bank0
  1848  049D  0823               	movf	___flmul@b+3,w
  1849  049E  3980               	andlw	128
  1850  049F  00A8               	movwf	??___flmul
  1851  04A0  0828               	movf	??___flmul,w
  1852  04A1  00AD               	movwf	___flmul@sign
  1853  04A2                     l1527:
  1854  04A2  0823               	movf	___flmul@b+3,w
  1855  04A3  00A8               	movwf	??___flmul
  1856  04A4  0728               	addwf	??___flmul,w
  1857  04A5  00A9               	movwf	??___flmul+1
  1858  04A6  0829               	movf	??___flmul+1,w
  1859  04A7  00B3               	movwf	___flmul@bexp
  1860  04A8                     l1529:
  1861  04A8  1FA2               	btfss	___flmul@b+2,7
  1862  04A9  2CAB               	goto	u1821
  1863  04AA  2CAC               	goto	u1820
  1864  04AB                     u1821:
  1865  04AB  2CAD               	goto	l1533
  1866  04AC                     u1820:
  1867  04AC                     l1531:
  1868  04AC  1433               	bsf	___flmul@bexp,0
  1869  04AD                     l1533:
  1870  04AD  0833               	movf	___flmul@bexp,w
  1871  04AE  1903               	btfsc	3,2
  1872  04AF  2CB1               	goto	u1831
  1873  04B0  2CB2               	goto	u1830
  1874  04B1                     u1831:
  1875  04B1  2CC1               	goto	l1541
  1876  04B2                     u1830:
  1877  04B2                     l1535:
  1878  04B2  0A33               	incf	___flmul@bexp,w
  1879  04B3  1D03               	btfss	3,2
  1880  04B4  2CB6               	goto	u1841
  1881  04B5  2CB7               	goto	u1840
  1882  04B6                     u1841:
  1883  04B6  2CBF               	goto	l1539
  1884  04B7                     u1840:
  1885  04B7                     l1537:
  1886  04B7  3000               	movlw	0
  1887  04B8  00A3               	movwf	___flmul@b+3
  1888  04B9  3000               	movlw	0
  1889  04BA  00A2               	movwf	___flmul@b+2
  1890  04BB  3000               	movlw	0
  1891  04BC  00A1               	movwf	___flmul@b+1
  1892  04BD  3000               	movlw	0
  1893  04BE  00A0               	movwf	___flmul@b
  1894  04BF                     l1539:
  1895  04BF  17A2               	bsf	___flmul@b+2,7
  1896  04C0  2CC9               	goto	l1543
  1897  04C1                     l1541:
  1898  04C1  3000               	movlw	0
  1899  04C2  00A3               	movwf	___flmul@b+3
  1900  04C3  3000               	movlw	0
  1901  04C4  00A2               	movwf	___flmul@b+2
  1902  04C5  3000               	movlw	0
  1903  04C6  00A1               	movwf	___flmul@b+1
  1904  04C7  3000               	movlw	0
  1905  04C8  00A0               	movwf	___flmul@b
  1906  04C9                     l1543:
  1907  04C9  0827               	movf	___flmul@a+3,w
  1908  04CA  3980               	andlw	128
  1909  04CB  00A8               	movwf	??___flmul
  1910  04CC  0828               	movf	??___flmul,w
  1911  04CD  06AD               	xorwf	___flmul@sign,f
  1912  04CE                     l1545:
  1913  04CE  0827               	movf	___flmul@a+3,w
  1914  04CF  00A8               	movwf	??___flmul
  1915  04D0  0728               	addwf	??___flmul,w
  1916  04D1  00A9               	movwf	??___flmul+1
  1917  04D2  0829               	movf	??___flmul+1,w
  1918  04D3  00B2               	movwf	___flmul@aexp
  1919  04D4                     l1547:
  1920  04D4  1FA6               	btfss	___flmul@a+2,7
  1921  04D5  2CD7               	goto	u1851
  1922  04D6  2CD8               	goto	u1850
  1923  04D7                     u1851:
  1924  04D7  2CD9               	goto	l1551
  1925  04D8                     u1850:
  1926  04D8                     l1549:
  1927  04D8  1432               	bsf	___flmul@aexp,0
  1928  04D9                     l1551:
  1929  04D9  0832               	movf	___flmul@aexp,w
  1930  04DA  1903               	btfsc	3,2
  1931  04DB  2CDD               	goto	u1861
  1932  04DC  2CDE               	goto	u1860
  1933  04DD                     u1861:
  1934  04DD  2CED               	goto	l1559
  1935  04DE                     u1860:
  1936  04DE                     l1553:
  1937  04DE  0A32               	incf	___flmul@aexp,w
  1938  04DF  1D03               	btfss	3,2
  1939  04E0  2CE2               	goto	u1871
  1940  04E1  2CE3               	goto	u1870
  1941  04E2                     u1871:
  1942  04E2  2CEB               	goto	l1557
  1943  04E3                     u1870:
  1944  04E3                     l1555:
  1945  04E3  3000               	movlw	0
  1946  04E4  00A7               	movwf	___flmul@a+3
  1947  04E5  3000               	movlw	0
  1948  04E6  00A6               	movwf	___flmul@a+2
  1949  04E7  3000               	movlw	0
  1950  04E8  00A5               	movwf	___flmul@a+1
  1951  04E9  3000               	movlw	0
  1952  04EA  00A4               	movwf	___flmul@a
  1953  04EB                     l1557:
  1954  04EB  17A6               	bsf	___flmul@a+2,7
  1955  04EC  2CF5               	goto	l1561
  1956  04ED                     l1559:
  1957  04ED  3000               	movlw	0
  1958  04EE  00A7               	movwf	___flmul@a+3
  1959  04EF  3000               	movlw	0
  1960  04F0  00A6               	movwf	___flmul@a+2
  1961  04F1  3000               	movlw	0
  1962  04F2  00A5               	movwf	___flmul@a+1
  1963  04F3  3000               	movlw	0
  1964  04F4  00A4               	movwf	___flmul@a
  1965  04F5                     l1561:
  1966  04F5  0832               	movf	___flmul@aexp,w
  1967  04F6  1903               	btfsc	3,2
  1968  04F7  2CF9               	goto	u1881
  1969  04F8  2CFA               	goto	u1880
  1970  04F9                     u1881:
  1971  04F9  2CFF               	goto	l1565
  1972  04FA                     u1880:
  1973  04FA                     l1563:
  1974  04FA  0833               	movf	___flmul@bexp,w
  1975  04FB  1D03               	btfss	3,2
  1976  04FC  2CFE               	goto	u1891
  1977  04FD  2CFF               	goto	u1890
  1978  04FE                     u1891:
  1979  04FE  2D08               	goto	l1569
  1980  04FF                     u1890:
  1981  04FF                     l1565:
  1982  04FF  3000               	movlw	0
  1983  0500  00A3               	movwf	?___flmul+3
  1984  0501  3000               	movlw	0
  1985  0502  00A2               	movwf	?___flmul+2
  1986  0503  3000               	movlw	0
  1987  0504  00A1               	movwf	?___flmul+1
  1988  0505  3000               	movlw	0
  1989  0506  00A0               	movwf	?___flmul
  1990  0507  2FFB               	goto	l544
  1991  0508                     l1569:
  1992  0508  0820               	movf	___flmul@b,w
  1993  0509  00A8               	movwf	??___flmul
  1994  050A  0828               	movf	??___flmul,w
  1995  050B  00F0               	movwf	__Umul8_16@multiplicand
  1996  050C  0826               	movf	___flmul@a+2,w
  1997  050D  120A  158A  26E8  120A  118A  	fcall	__Umul8_16
  1998  0512  0871               	movf	?__Umul8_16+1,w
  1999  0513  1283               	bcf	3,5	;RP0=0, select bank0
  2000  0514  1303               	bcf	3,6	;RP1=0, select bank0
  2001  0515  00B9               	movwf	___flmul@temp+1
  2002  0516  0870               	movf	?__Umul8_16,w
  2003  0517  00B8               	movwf	___flmul@temp
  2004  0518                     l1571:
  2005  0518  0838               	movf	___flmul@temp,w
  2006  0519  00A8               	movwf	??___flmul
  2007  051A  01A9               	clrf	??___flmul+1
  2008  051B  01AA               	clrf	??___flmul+2
  2009  051C  01AB               	clrf	??___flmul+3
  2010  051D  082B               	movf	??___flmul+3,w
  2011  051E  00B1               	movwf	___flmul@grs+3
  2012  051F  082A               	movf	??___flmul+2,w
  2013  0520  00B0               	movwf	___flmul@grs+2
  2014  0521  0829               	movf	??___flmul+1,w
  2015  0522  00AF               	movwf	___flmul@grs+1
  2016  0523  0828               	movf	??___flmul,w
  2017  0524  00AE               	movwf	___flmul@grs
  2018  0525                     l1573:
  2019  0525  0839               	movf	___flmul@temp+1,w
  2020  0526  00A8               	movwf	??___flmul
  2021  0527  01A9               	clrf	??___flmul+1
  2022  0528  01AA               	clrf	??___flmul+2
  2023  0529  01AB               	clrf	??___flmul+3
  2024  052A  082B               	movf	??___flmul+3,w
  2025  052B  00B7               	movwf	___flmul@prod+3
  2026  052C  082A               	movf	??___flmul+2,w
  2027  052D  00B6               	movwf	___flmul@prod+2
  2028  052E  0829               	movf	??___flmul+1,w
  2029  052F  00B5               	movwf	___flmul@prod+1
  2030  0530  0828               	movf	??___flmul,w
  2031  0531  00B4               	movwf	___flmul@prod
  2032  0532  0821               	movf	___flmul@b+1,w
  2033  0533  00A8               	movwf	??___flmul
  2034  0534  0828               	movf	??___flmul,w
  2035  0535  00F0               	movwf	__Umul8_16@multiplicand
  2036  0536  0825               	movf	___flmul@a+1,w
  2037  0537  120A  158A  26E8  120A  118A  	fcall	__Umul8_16
  2038  053C  0871               	movf	?__Umul8_16+1,w
  2039  053D  1283               	bcf	3,5	;RP0=0, select bank0
  2040  053E  1303               	bcf	3,6	;RP1=0, select bank0
  2041  053F  00B9               	movwf	___flmul@temp+1
  2042  0540  0870               	movf	?__Umul8_16,w
  2043  0541  00B8               	movwf	___flmul@temp
  2044  0542                     l1575:
  2045  0542  0838               	movf	___flmul@temp,w
  2046  0543  00A8               	movwf	??___flmul
  2047  0544  01A9               	clrf	??___flmul+1
  2048  0545  01AA               	clrf	??___flmul+2
  2049  0546  01AB               	clrf	??___flmul+3
  2050  0547  0828               	movf	??___flmul,w
  2051  0548  07AE               	addwf	___flmul@grs,f
  2052  0549  0829               	movf	??___flmul+1,w
  2053  054A  1103               	clrz
  2054  054B  1803               	skipnc
  2055  054C  3E01               	addlw	1
  2056  054D  1903               	skipnz
  2057  054E  2D50               	goto	u1901
  2058  054F  07AF               	addwf	___flmul@grs+1,f
  2059  0550                     u1901:
  2060  0550  082A               	movf	??___flmul+2,w
  2061  0551  1103               	clrz
  2062  0552  1803               	skipnc
  2063  0553  3E01               	addlw	1
  2064  0554  1903               	skipnz
  2065  0555  2D57               	goto	u1902
  2066  0556  07B0               	addwf	___flmul@grs+2,f
  2067  0557                     u1902:
  2068  0557  082B               	movf	??___flmul+3,w
  2069  0558  1103               	clrz
  2070  0559  1803               	skipnc
  2071  055A  3E01               	addlw	1
  2072  055B  1903               	skipnz
  2073  055C  2D5E               	goto	u1903
  2074  055D  07B1               	addwf	___flmul@grs+3,f
  2075  055E                     u1903:
  2076  055E                     l1577:
  2077  055E  0839               	movf	___flmul@temp+1,w
  2078  055F  00A8               	movwf	??___flmul
  2079  0560  01A9               	clrf	??___flmul+1
  2080  0561  01AA               	clrf	??___flmul+2
  2081  0562  01AB               	clrf	??___flmul+3
  2082  0563  0828               	movf	??___flmul,w
  2083  0564  07B4               	addwf	___flmul@prod,f
  2084  0565  0829               	movf	??___flmul+1,w
  2085  0566  1103               	clrz
  2086  0567  1803               	skipnc
  2087  0568  3E01               	addlw	1
  2088  0569  1903               	skipnz
  2089  056A  2D6C               	goto	u1911
  2090  056B  07B5               	addwf	___flmul@prod+1,f
  2091  056C                     u1911:
  2092  056C  082A               	movf	??___flmul+2,w
  2093  056D  1103               	clrz
  2094  056E  1803               	skipnc
  2095  056F  3E01               	addlw	1
  2096  0570  1903               	skipnz
  2097  0571  2D73               	goto	u1912
  2098  0572  07B6               	addwf	___flmul@prod+2,f
  2099  0573                     u1912:
  2100  0573  082B               	movf	??___flmul+3,w
  2101  0574  1103               	clrz
  2102  0575  1803               	skipnc
  2103  0576  3E01               	addlw	1
  2104  0577  1903               	skipnz
  2105  0578  2D7A               	goto	u1913
  2106  0579  07B7               	addwf	___flmul@prod+3,f
  2107  057A                     u1913:
  2108  057A  0822               	movf	___flmul@b+2,w
  2109  057B  00A8               	movwf	??___flmul
  2110  057C  0828               	movf	??___flmul,w
  2111  057D  00F0               	movwf	__Umul8_16@multiplicand
  2112  057E  0824               	movf	___flmul@a,w
  2113  057F  120A  158A  26E8  120A  118A  	fcall	__Umul8_16
  2114  0584  0871               	movf	?__Umul8_16+1,w
  2115  0585  1283               	bcf	3,5	;RP0=0, select bank0
  2116  0586  1303               	bcf	3,6	;RP1=0, select bank0
  2117  0587  00B9               	movwf	___flmul@temp+1
  2118  0588  0870               	movf	?__Umul8_16,w
  2119  0589  00B8               	movwf	___flmul@temp
  2120  058A                     l1579:
  2121  058A  0838               	movf	___flmul@temp,w
  2122  058B  00A8               	movwf	??___flmul
  2123  058C  01A9               	clrf	??___flmul+1
  2124  058D  01AA               	clrf	??___flmul+2
  2125  058E  01AB               	clrf	??___flmul+3
  2126  058F  0828               	movf	??___flmul,w
  2127  0590  07AE               	addwf	___flmul@grs,f
  2128  0591  0829               	movf	??___flmul+1,w
  2129  0592  1103               	clrz
  2130  0593  1803               	skipnc
  2131  0594  3E01               	addlw	1
  2132  0595  1903               	skipnz
  2133  0596  2D98               	goto	u1921
  2134  0597  07AF               	addwf	___flmul@grs+1,f
  2135  0598                     u1921:
  2136  0598  082A               	movf	??___flmul+2,w
  2137  0599  1103               	clrz
  2138  059A  1803               	skipnc
  2139  059B  3E01               	addlw	1
  2140  059C  1903               	skipnz
  2141  059D  2D9F               	goto	u1922
  2142  059E  07B0               	addwf	___flmul@grs+2,f
  2143  059F                     u1922:
  2144  059F  082B               	movf	??___flmul+3,w
  2145  05A0  1103               	clrz
  2146  05A1  1803               	skipnc
  2147  05A2  3E01               	addlw	1
  2148  05A3  1903               	skipnz
  2149  05A4  2DA6               	goto	u1923
  2150  05A5  07B1               	addwf	___flmul@grs+3,f
  2151  05A6                     u1923:
  2152  05A6                     l1581:
  2153  05A6  0839               	movf	___flmul@temp+1,w
  2154  05A7  00A8               	movwf	??___flmul
  2155  05A8  01A9               	clrf	??___flmul+1
  2156  05A9  01AA               	clrf	??___flmul+2
  2157  05AA  01AB               	clrf	??___flmul+3
  2158  05AB  0828               	movf	??___flmul,w
  2159  05AC  07B4               	addwf	___flmul@prod,f
  2160  05AD  0829               	movf	??___flmul+1,w
  2161  05AE  1103               	clrz
  2162  05AF  1803               	skipnc
  2163  05B0  3E01               	addlw	1
  2164  05B1  1903               	skipnz
  2165  05B2  2DB4               	goto	u1931
  2166  05B3  07B5               	addwf	___flmul@prod+1,f
  2167  05B4                     u1931:
  2168  05B4  082A               	movf	??___flmul+2,w
  2169  05B5  1103               	clrz
  2170  05B6  1803               	skipnc
  2171  05B7  3E01               	addlw	1
  2172  05B8  1903               	skipnz
  2173  05B9  2DBB               	goto	u1932
  2174  05BA  07B6               	addwf	___flmul@prod+2,f
  2175  05BB                     u1932:
  2176  05BB  082B               	movf	??___flmul+3,w
  2177  05BC  1103               	clrz
  2178  05BD  1803               	skipnc
  2179  05BE  3E01               	addlw	1
  2180  05BF  1903               	skipnz
  2181  05C0  2DC2               	goto	u1933
  2182  05C1  07B7               	addwf	___flmul@prod+3,f
  2183  05C2                     u1933:
  2184  05C2                     l1583:
  2185  05C2  3008               	movlw	8
  2186  05C3  00A8               	movwf	??___flmul
  2187  05C4                     u1945:
  2188  05C4  1003               	clrc
  2189  05C5  0DAE               	rlf	___flmul@grs,f
  2190  05C6  0DAF               	rlf	___flmul@grs+1,f
  2191  05C7  0DB0               	rlf	___flmul@grs+2,f
  2192  05C8  0DB1               	rlf	___flmul@grs+3,f
  2193  05C9  0BA8               	decfsz	??___flmul,f
  2194  05CA  2DC4               	goto	u1945
  2195  05CB                     l1585:
  2196  05CB  0821               	movf	___flmul@b+1,w
  2197  05CC  00A8               	movwf	??___flmul
  2198  05CD  0828               	movf	??___flmul,w
  2199  05CE  00F0               	movwf	__Umul8_16@multiplicand
  2200  05CF  0824               	movf	___flmul@a,w
  2201  05D0  120A  158A  26E8  120A  118A  	fcall	__Umul8_16
  2202  05D5  0871               	movf	?__Umul8_16+1,w
  2203  05D6  1283               	bcf	3,5	;RP0=0, select bank0
  2204  05D7  1303               	bcf	3,6	;RP1=0, select bank0
  2205  05D8  00B9               	movwf	___flmul@temp+1
  2206  05D9  0870               	movf	?__Umul8_16,w
  2207  05DA  00B8               	movwf	___flmul@temp
  2208  05DB                     l1587:
  2209  05DB  0838               	movf	___flmul@temp,w
  2210  05DC  00A8               	movwf	??___flmul
  2211  05DD  0839               	movf	___flmul@temp+1,w
  2212  05DE  00A9               	movwf	??___flmul+1
  2213  05DF  01AA               	clrf	??___flmul+2
  2214  05E0  01AB               	clrf	??___flmul+3
  2215  05E1  0828               	movf	??___flmul,w
  2216  05E2  07AE               	addwf	___flmul@grs,f
  2217  05E3  0829               	movf	??___flmul+1,w
  2218  05E4  1103               	clrz
  2219  05E5  1803               	skipnc
  2220  05E6  3E01               	addlw	1
  2221  05E7  1903               	skipnz
  2222  05E8  2DEA               	goto	u1951
  2223  05E9  07AF               	addwf	___flmul@grs+1,f
  2224  05EA                     u1951:
  2225  05EA  082A               	movf	??___flmul+2,w
  2226  05EB  1103               	clrz
  2227  05EC  1803               	skipnc
  2228  05ED  3E01               	addlw	1
  2229  05EE  1903               	skipnz
  2230  05EF  2DF1               	goto	u1952
  2231  05F0  07B0               	addwf	___flmul@grs+2,f
  2232  05F1                     u1952:
  2233  05F1  082B               	movf	??___flmul+3,w
  2234  05F2  1103               	clrz
  2235  05F3  1803               	skipnc
  2236  05F4  3E01               	addlw	1
  2237  05F5  1903               	skipnz
  2238  05F6  2DF8               	goto	u1953
  2239  05F7  07B1               	addwf	___flmul@grs+3,f
  2240  05F8                     u1953:
  2241  05F8                     l1589:
  2242  05F8  0820               	movf	___flmul@b,w
  2243  05F9  00A8               	movwf	??___flmul
  2244  05FA  0828               	movf	??___flmul,w
  2245  05FB  00F0               	movwf	__Umul8_16@multiplicand
  2246  05FC  0825               	movf	___flmul@a+1,w
  2247  05FD  120A  158A  26E8  120A  118A  	fcall	__Umul8_16
  2248  0602  0871               	movf	?__Umul8_16+1,w
  2249  0603  1283               	bcf	3,5	;RP0=0, select bank0
  2250  0604  1303               	bcf	3,6	;RP1=0, select bank0
  2251  0605  00B9               	movwf	___flmul@temp+1
  2252  0606  0870               	movf	?__Umul8_16,w
  2253  0607  00B8               	movwf	___flmul@temp
  2254  0608                     l1591:
  2255  0608  0838               	movf	___flmul@temp,w
  2256  0609  00A8               	movwf	??___flmul
  2257  060A  0839               	movf	___flmul@temp+1,w
  2258  060B  00A9               	movwf	??___flmul+1
  2259  060C  01AA               	clrf	??___flmul+2
  2260  060D  01AB               	clrf	??___flmul+3
  2261  060E  0828               	movf	??___flmul,w
  2262  060F  07AE               	addwf	___flmul@grs,f
  2263  0610  0829               	movf	??___flmul+1,w
  2264  0611  1103               	clrz
  2265  0612  1803               	skipnc
  2266  0613  3E01               	addlw	1
  2267  0614  1903               	skipnz
  2268  0615  2E17               	goto	u1961
  2269  0616  07AF               	addwf	___flmul@grs+1,f
  2270  0617                     u1961:
  2271  0617  082A               	movf	??___flmul+2,w
  2272  0618  1103               	clrz
  2273  0619  1803               	skipnc
  2274  061A  3E01               	addlw	1
  2275  061B  1903               	skipnz
  2276  061C  2E1E               	goto	u1962
  2277  061D  07B0               	addwf	___flmul@grs+2,f
  2278  061E                     u1962:
  2279  061E  082B               	movf	??___flmul+3,w
  2280  061F  1103               	clrz
  2281  0620  1803               	skipnc
  2282  0621  3E01               	addlw	1
  2283  0622  1903               	skipnz
  2284  0623  2E25               	goto	u1963
  2285  0624  07B1               	addwf	___flmul@grs+3,f
  2286  0625                     u1963:
  2287  0625                     l1593:
  2288  0625  3008               	movlw	8
  2289  0626  00A8               	movwf	??___flmul
  2290  0627                     u1975:
  2291  0627  1003               	clrc
  2292  0628  0DAE               	rlf	___flmul@grs,f
  2293  0629  0DAF               	rlf	___flmul@grs+1,f
  2294  062A  0DB0               	rlf	___flmul@grs+2,f
  2295  062B  0DB1               	rlf	___flmul@grs+3,f
  2296  062C  0BA8               	decfsz	??___flmul,f
  2297  062D  2E27               	goto	u1975
  2298  062E  0820               	movf	___flmul@b,w
  2299  062F  00A8               	movwf	??___flmul
  2300  0630  0828               	movf	??___flmul,w
  2301  0631  00F0               	movwf	__Umul8_16@multiplicand
  2302  0632  0824               	movf	___flmul@a,w
  2303  0633  120A  158A  26E8  120A  118A  	fcall	__Umul8_16
  2304  0638  0871               	movf	?__Umul8_16+1,w
  2305  0639  1283               	bcf	3,5	;RP0=0, select bank0
  2306  063A  1303               	bcf	3,6	;RP1=0, select bank0
  2307  063B  00B9               	movwf	___flmul@temp+1
  2308  063C  0870               	movf	?__Umul8_16,w
  2309  063D  00B8               	movwf	___flmul@temp
  2310  063E                     l1595:
  2311  063E  0838               	movf	___flmul@temp,w
  2312  063F  00A8               	movwf	??___flmul
  2313  0640  0839               	movf	___flmul@temp+1,w
  2314  0641  00A9               	movwf	??___flmul+1
  2315  0642  01AA               	clrf	??___flmul+2
  2316  0643  01AB               	clrf	??___flmul+3
  2317  0644  0828               	movf	??___flmul,w
  2318  0645  07AE               	addwf	___flmul@grs,f
  2319  0646  0829               	movf	??___flmul+1,w
  2320  0647  1103               	clrz
  2321  0648  1803               	skipnc
  2322  0649  3E01               	addlw	1
  2323  064A  1903               	skipnz
  2324  064B  2E4D               	goto	u1981
  2325  064C  07AF               	addwf	___flmul@grs+1,f
  2326  064D                     u1981:
  2327  064D  082A               	movf	??___flmul+2,w
  2328  064E  1103               	clrz
  2329  064F  1803               	skipnc
  2330  0650  3E01               	addlw	1
  2331  0651  1903               	skipnz
  2332  0652  2E54               	goto	u1982
  2333  0653  07B0               	addwf	___flmul@grs+2,f
  2334  0654                     u1982:
  2335  0654  082B               	movf	??___flmul+3,w
  2336  0655  1103               	clrz
  2337  0656  1803               	skipnc
  2338  0657  3E01               	addlw	1
  2339  0658  1903               	skipnz
  2340  0659  2E5B               	goto	u1983
  2341  065A  07B1               	addwf	___flmul@grs+3,f
  2342  065B                     u1983:
  2343  065B                     l1597:
  2344  065B  0821               	movf	___flmul@b+1,w
  2345  065C  00A8               	movwf	??___flmul
  2346  065D  0828               	movf	??___flmul,w
  2347  065E  00F0               	movwf	__Umul8_16@multiplicand
  2348  065F  0826               	movf	___flmul@a+2,w
  2349  0660  120A  158A  26E8  120A  118A  	fcall	__Umul8_16
  2350  0665  0871               	movf	?__Umul8_16+1,w
  2351  0666  1283               	bcf	3,5	;RP0=0, select bank0
  2352  0667  1303               	bcf	3,6	;RP1=0, select bank0
  2353  0668  00B9               	movwf	___flmul@temp+1
  2354  0669  0870               	movf	?__Umul8_16,w
  2355  066A  00B8               	movwf	___flmul@temp
  2356  066B  0838               	movf	___flmul@temp,w
  2357  066C  00A8               	movwf	??___flmul
  2358  066D  0839               	movf	___flmul@temp+1,w
  2359  066E  00A9               	movwf	??___flmul+1
  2360  066F  01AA               	clrf	??___flmul+2
  2361  0670  01AB               	clrf	??___flmul+3
  2362  0671  0828               	movf	??___flmul,w
  2363  0672  07B4               	addwf	___flmul@prod,f
  2364  0673  0829               	movf	??___flmul+1,w
  2365  0674  1103               	clrz
  2366  0675  1803               	skipnc
  2367  0676  3E01               	addlw	1
  2368  0677  1903               	skipnz
  2369  0678  2E7A               	goto	u1991
  2370  0679  07B5               	addwf	___flmul@prod+1,f
  2371  067A                     u1991:
  2372  067A  082A               	movf	??___flmul+2,w
  2373  067B  1103               	clrz
  2374  067C  1803               	skipnc
  2375  067D  3E01               	addlw	1
  2376  067E  1903               	skipnz
  2377  067F  2E81               	goto	u1992
  2378  0680  07B6               	addwf	___flmul@prod+2,f
  2379  0681                     u1992:
  2380  0681  082B               	movf	??___flmul+3,w
  2381  0682  1103               	clrz
  2382  0683  1803               	skipnc
  2383  0684  3E01               	addlw	1
  2384  0685  1903               	skipnz
  2385  0686  2E88               	goto	u1993
  2386  0687  07B7               	addwf	___flmul@prod+3,f
  2387  0688                     u1993:
  2388  0688                     l1599:
  2389  0688  0822               	movf	___flmul@b+2,w
  2390  0689  00A8               	movwf	??___flmul
  2391  068A  0828               	movf	??___flmul,w
  2392  068B  00F0               	movwf	__Umul8_16@multiplicand
  2393  068C  0825               	movf	___flmul@a+1,w
  2394  068D  120A  158A  26E8  120A  118A  	fcall	__Umul8_16
  2395  0692  0871               	movf	?__Umul8_16+1,w
  2396  0693  1283               	bcf	3,5	;RP0=0, select bank0
  2397  0694  1303               	bcf	3,6	;RP1=0, select bank0
  2398  0695  00B9               	movwf	___flmul@temp+1
  2399  0696  0870               	movf	?__Umul8_16,w
  2400  0697  00B8               	movwf	___flmul@temp
  2401  0698                     l1601:
  2402  0698  0838               	movf	___flmul@temp,w
  2403  0699  00A8               	movwf	??___flmul
  2404  069A  0839               	movf	___flmul@temp+1,w
  2405  069B  00A9               	movwf	??___flmul+1
  2406  069C  01AA               	clrf	??___flmul+2
  2407  069D  01AB               	clrf	??___flmul+3
  2408  069E  0828               	movf	??___flmul,w
  2409  069F  07B4               	addwf	___flmul@prod,f
  2410  06A0  0829               	movf	??___flmul+1,w
  2411  06A1  1103               	clrz
  2412  06A2  1803               	skipnc
  2413  06A3  3E01               	addlw	1
  2414  06A4  1903               	skipnz
  2415  06A5  2EA7               	goto	u2001
  2416  06A6  07B5               	addwf	___flmul@prod+1,f
  2417  06A7                     u2001:
  2418  06A7  082A               	movf	??___flmul+2,w
  2419  06A8  1103               	clrz
  2420  06A9  1803               	skipnc
  2421  06AA  3E01               	addlw	1
  2422  06AB  1903               	skipnz
  2423  06AC  2EAE               	goto	u2002
  2424  06AD  07B6               	addwf	___flmul@prod+2,f
  2425  06AE                     u2002:
  2426  06AE  082B               	movf	??___flmul+3,w
  2427  06AF  1103               	clrz
  2428  06B0  1803               	skipnc
  2429  06B1  3E01               	addlw	1
  2430  06B2  1903               	skipnz
  2431  06B3  2EB5               	goto	u2003
  2432  06B4  07B7               	addwf	___flmul@prod+3,f
  2433  06B5                     u2003:
  2434  06B5  0822               	movf	___flmul@b+2,w
  2435  06B6  00A8               	movwf	??___flmul
  2436  06B7  0828               	movf	??___flmul,w
  2437  06B8  00F0               	movwf	__Umul8_16@multiplicand
  2438  06B9  0826               	movf	___flmul@a+2,w
  2439  06BA  120A  158A  26E8  120A  118A  	fcall	__Umul8_16
  2440  06BF  0871               	movf	?__Umul8_16+1,w
  2441  06C0  1283               	bcf	3,5	;RP0=0, select bank0
  2442  06C1  1303               	bcf	3,6	;RP1=0, select bank0
  2443  06C2  00B9               	movwf	___flmul@temp+1
  2444  06C3  0870               	movf	?__Umul8_16,w
  2445  06C4  00B8               	movwf	___flmul@temp
  2446  06C5                     l1603:
  2447  06C5  0838               	movf	___flmul@temp,w
  2448  06C6  00A8               	movwf	??___flmul
  2449  06C7  0839               	movf	___flmul@temp+1,w
  2450  06C8  00A9               	movwf	??___flmul+1
  2451  06C9  01AA               	clrf	??___flmul+2
  2452  06CA  01AB               	clrf	??___flmul+3
  2453  06CB  3008               	movlw	8
  2454  06CC                     u2015:
  2455  06CC  1003               	clrc
  2456  06CD  0DA8               	rlf	??___flmul,f
  2457  06CE  0DA9               	rlf	??___flmul+1,f
  2458  06CF  0DAA               	rlf	??___flmul+2,f
  2459  06D0  0DAB               	rlf	??___flmul+3,f
  2460  06D1                     u2010:
  2461  06D1  3EFF               	addlw	-1
  2462  06D2  1D03               	skipz
  2463  06D3  2ECC               	goto	u2015
  2464  06D4  0828               	movf	??___flmul,w
  2465  06D5  07B4               	addwf	___flmul@prod,f
  2466  06D6  0829               	movf	??___flmul+1,w
  2467  06D7  1103               	clrz
  2468  06D8  1803               	skipnc
  2469  06D9  3E01               	addlw	1
  2470  06DA  1903               	skipnz
  2471  06DB  2EDD               	goto	u2021
  2472  06DC  07B5               	addwf	___flmul@prod+1,f
  2473  06DD                     u2021:
  2474  06DD  082A               	movf	??___flmul+2,w
  2475  06DE  1103               	clrz
  2476  06DF  1803               	skipnc
  2477  06E0  3E01               	addlw	1
  2478  06E1  1903               	skipnz
  2479  06E2  2EE4               	goto	u2022
  2480  06E3  07B6               	addwf	___flmul@prod+2,f
  2481  06E4                     u2022:
  2482  06E4  082B               	movf	??___flmul+3,w
  2483  06E5  1103               	clrz
  2484  06E6  1803               	skipnc
  2485  06E7  3E01               	addlw	1
  2486  06E8  1903               	skipnz
  2487  06E9  2EEB               	goto	u2023
  2488  06EA  07B7               	addwf	___flmul@prod+3,f
  2489  06EB                     u2023:
  2490  06EB                     l1605:
  2491  06EB  082E               	movf	___flmul@grs,w
  2492  06EC  00A8               	movwf	??___flmul
  2493  06ED  082F               	movf	___flmul@grs+1,w
  2494  06EE  00A9               	movwf	??___flmul+1
  2495  06EF  0830               	movf	___flmul@grs+2,w
  2496  06F0  00AA               	movwf	??___flmul+2
  2497  06F1  0831               	movf	___flmul@grs+3,w
  2498  06F2  00AB               	movwf	??___flmul+3
  2499  06F3  3018               	movlw	24
  2500  06F4                     u2035:
  2501  06F4  1003               	clrc
  2502  06F5  0CAB               	rrf	??___flmul+3,f
  2503  06F6  0CAA               	rrf	??___flmul+2,f
  2504  06F7  0CA9               	rrf	??___flmul+1,f
  2505  06F8  0CA8               	rrf	??___flmul,f
  2506  06F9                     u2030:
  2507  06F9  3EFF               	addlw	-1
  2508  06FA  1D03               	skipz
  2509  06FB  2EF4               	goto	u2035
  2510  06FC  0828               	movf	??___flmul,w
  2511  06FD  07B4               	addwf	___flmul@prod,f
  2512  06FE  0829               	movf	??___flmul+1,w
  2513  06FF  1103               	clrz
  2514  0700  1803               	skipnc
  2515  0701  3E01               	addlw	1
  2516  0702  1903               	skipnz
  2517  0703  2F05               	goto	u2041
  2518  0704  07B5               	addwf	___flmul@prod+1,f
  2519  0705                     u2041:
  2520  0705  082A               	movf	??___flmul+2,w
  2521  0706  1103               	clrz
  2522  0707  1803               	skipnc
  2523  0708  3E01               	addlw	1
  2524  0709  1903               	skipnz
  2525  070A  2F0C               	goto	u2042
  2526  070B  07B6               	addwf	___flmul@prod+2,f
  2527  070C                     u2042:
  2528  070C  082B               	movf	??___flmul+3,w
  2529  070D  1103               	clrz
  2530  070E  1803               	skipnc
  2531  070F  3E01               	addlw	1
  2532  0710  1903               	skipnz
  2533  0711  2F13               	goto	u2043
  2534  0712  07B7               	addwf	___flmul@prod+3,f
  2535  0713                     u2043:
  2536  0713                     l1607:
  2537  0713  3008               	movlw	8
  2538  0714  00A8               	movwf	??___flmul
  2539  0715                     u2055:
  2540  0715  1003               	clrc
  2541  0716  0DAE               	rlf	___flmul@grs,f
  2542  0717  0DAF               	rlf	___flmul@grs+1,f
  2543  0718  0DB0               	rlf	___flmul@grs+2,f
  2544  0719  0DB1               	rlf	___flmul@grs+3,f
  2545  071A  0BA8               	decfsz	??___flmul,f
  2546  071B  2F15               	goto	u2055
  2547  071C                     l1609:
  2548  071C  0833               	movf	___flmul@bexp,w
  2549  071D  0732               	addwf	___flmul@aexp,w
  2550  071E  00A8               	movwf	??___flmul
  2551  071F  01A9               	clrf	??___flmul+1
  2552  0720  0DA9               	rlf	??___flmul+1,f
  2553  0721  0828               	movf	??___flmul,w
  2554  0722  3E82               	addlw	130
  2555  0723  00B8               	movwf	___flmul@temp
  2556  0724  0829               	movf	??___flmul+1,w
  2557  0725  1803               	skipnc
  2558  0726  3E01               	addlw	1
  2559  0727  3EFF               	addlw	255
  2560  0728  00B9               	movwf	___flmul@temp+1
  2561  0729  2F47               	goto	l1621
  2562  072A                     l1611:
  2563  072A  3001               	movlw	1
  2564  072B  00A8               	movwf	??___flmul
  2565  072C                     u2065:
  2566  072C  1003               	clrc
  2567  072D  0DB4               	rlf	___flmul@prod,f
  2568  072E  0DB5               	rlf	___flmul@prod+1,f
  2569  072F  0DB6               	rlf	___flmul@prod+2,f
  2570  0730  0DB7               	rlf	___flmul@prod+3,f
  2571  0731  0BA8               	decfsz	??___flmul,f
  2572  0732  2F2C               	goto	u2065
  2573  0733                     l1613:
  2574  0733  1FB1               	btfss	___flmul@grs+3,7
  2575  0734  2F36               	goto	u2071
  2576  0735  2F37               	goto	u2070
  2577  0736                     u2071:
  2578  0736  2F38               	goto	l1617
  2579  0737                     u2070:
  2580  0737                     l1615:
  2581  0737  1434               	bsf	___flmul@prod,0
  2582  0738                     l1617:
  2583  0738  3001               	movlw	1
  2584  0739  00A8               	movwf	??___flmul
  2585  073A                     u2085:
  2586  073A  1003               	clrc
  2587  073B  0DAE               	rlf	___flmul@grs,f
  2588  073C  0DAF               	rlf	___flmul@grs+1,f
  2589  073D  0DB0               	rlf	___flmul@grs+2,f
  2590  073E  0DB1               	rlf	___flmul@grs+3,f
  2591  073F  0BA8               	decfsz	??___flmul,f
  2592  0740  2F3A               	goto	u2085
  2593  0741                     l1619:
  2594  0741  30FF               	movlw	255
  2595  0742  07B8               	addwf	___flmul@temp,f
  2596  0743  1803               	skipnc
  2597  0744  0AB9               	incf	___flmul@temp+1,f
  2598  0745  30FF               	movlw	255
  2599  0746  07B9               	addwf	___flmul@temp+1,f
  2600  0747                     l1621:
  2601  0747  1FB6               	btfss	___flmul@prod+2,7
  2602  0748  2F4A               	goto	u2091
  2603  0749  2F4B               	goto	u2090
  2604  074A                     u2091:
  2605  074A  2F2A               	goto	l1611
  2606  074B                     u2090:
  2607  074B                     l1623:
  2608  074B  01B2               	clrf	___flmul@aexp
  2609  074C                     l1625:
  2610  074C  1FB1               	btfss	___flmul@grs+3,7
  2611  074D  2F4F               	goto	u2101
  2612  074E  2F50               	goto	u2100
  2613  074F                     u2101:
  2614  074F  2F6C               	goto	l1633
  2615  0750                     u2100:
  2616  0750                     l1627:
  2617  0750  30FF               	movlw	255
  2618  0751  052E               	andwf	___flmul@grs,w
  2619  0752  00A8               	movwf	??___flmul
  2620  0753  30FF               	movlw	255
  2621  0754  052F               	andwf	___flmul@grs+1,w
  2622  0755  00A9               	movwf	??___flmul+1
  2623  0756  30FF               	movlw	255
  2624  0757  0530               	andwf	___flmul@grs+2,w
  2625  0758  00AA               	movwf	??___flmul+2
  2626  0759  307F               	movlw	127
  2627  075A  0531               	andwf	___flmul@grs+3,w
  2628  075B  00AB               	movwf	??___flmul+3
  2629  075C  082B               	movf	??___flmul+3,w
  2630  075D  042A               	iorwf	??___flmul+2,w
  2631  075E  0429               	iorwf	??___flmul+1,w
  2632  075F  0428               	iorwf	??___flmul,w
  2633  0760  1903               	skipnz
  2634  0761  2F63               	goto	u2111
  2635  0762  2F64               	goto	u2110
  2636  0763                     u2111:
  2637  0763  2F67               	goto	l550
  2638  0764                     u2110:
  2639  0764                     l1629:
  2640  0764  01B2               	clrf	___flmul@aexp
  2641  0765  0AB2               	incf	___flmul@aexp,f
  2642  0766  2F6C               	goto	l1633
  2643  0767                     l550:
  2644  0767  1C34               	btfss	___flmul@prod,0
  2645  0768  2F6A               	goto	u2121
  2646  0769  2F6B               	goto	u2120
  2647  076A                     u2121:
  2648  076A  2F6C               	goto	l1633
  2649  076B                     u2120:
  2650  076B  2F64               	goto	l1629
  2651  076C                     l1633:
  2652  076C  0832               	movf	___flmul@aexp,w
  2653  076D  1903               	btfsc	3,2
  2654  076E  2F70               	goto	u2131
  2655  076F  2F71               	goto	u2130
  2656  0770                     u2131:
  2657  0770  2FA2               	goto	l1643
  2658  0771                     u2130:
  2659  0771                     l1635:
  2660  0771  3001               	movlw	1
  2661  0772  07B4               	addwf	___flmul@prod,f
  2662  0773  3000               	movlw	0
  2663  0774  1803               	skipnc
  2664  0775  3001               	movlw	1
  2665  0776  07B5               	addwf	___flmul@prod+1,f
  2666  0777  3000               	movlw	0
  2667  0778  1803               	skipnc
  2668  0779  3001               	movlw	1
  2669  077A  07B6               	addwf	___flmul@prod+2,f
  2670  077B  3000               	movlw	0
  2671  077C  1803               	skipnc
  2672  077D  3001               	movlw	1
  2673  077E  07B7               	addwf	___flmul@prod+3,f
  2674  077F                     l1637:
  2675  077F  1C37               	btfss	___flmul@prod+3,0
  2676  0780  2F82               	goto	u2141
  2677  0781  2F83               	goto	u2140
  2678  0782                     u2141:
  2679  0782  2FA2               	goto	l1643
  2680  0783                     u2140:
  2681  0783                     l1639:
  2682  0783  0834               	movf	___flmul@prod,w
  2683  0784  00A8               	movwf	??___flmul
  2684  0785  0835               	movf	___flmul@prod+1,w
  2685  0786  00A9               	movwf	??___flmul+1
  2686  0787  0836               	movf	___flmul@prod+2,w
  2687  0788  00AA               	movwf	??___flmul+2
  2688  0789  0837               	movf	___flmul@prod+3,w
  2689  078A  00AB               	movwf	??___flmul+3
  2690  078B  3001               	movlw	1
  2691  078C  00AC               	movwf	??___flmul+4
  2692  078D                     u2155:
  2693  078D  0D2B               	rlf	??___flmul+3,w
  2694  078E  0CAB               	rrf	??___flmul+3,f
  2695  078F  0CAA               	rrf	??___flmul+2,f
  2696  0790  0CA9               	rrf	??___flmul+1,f
  2697  0791  0CA8               	rrf	??___flmul,f
  2698  0792                     u2150:
  2699  0792  0BAC               	decfsz	??___flmul+4,f
  2700  0793  2F8D               	goto	u2155
  2701  0794  082B               	movf	??___flmul+3,w
  2702  0795  00B7               	movwf	___flmul@prod+3
  2703  0796  082A               	movf	??___flmul+2,w
  2704  0797  00B6               	movwf	___flmul@prod+2
  2705  0798  0829               	movf	??___flmul+1,w
  2706  0799  00B5               	movwf	___flmul@prod+1
  2707  079A  0828               	movf	??___flmul,w
  2708  079B  00B4               	movwf	___flmul@prod
  2709  079C                     l1641:
  2710  079C  3001               	movlw	1
  2711  079D  07B8               	addwf	___flmul@temp,f
  2712  079E  1803               	skipnc
  2713  079F  0AB9               	incf	___flmul@temp+1,f
  2714  07A0  3000               	movlw	0
  2715  07A1  07B9               	addwf	___flmul@temp+1,f
  2716  07A2                     l1643:
  2717  07A2  0839               	movf	___flmul@temp+1,w
  2718  07A3  3A80               	xorlw	128
  2719  07A4  00FF               	movwf	btemp+1
  2720  07A5  3080               	movlw	128
  2721  07A6  027F               	subwf	btemp+1,w
  2722  07A7  1D03               	skipz
  2723  07A8  2FAB               	goto	u2165
  2724  07A9  30FF               	movlw	255
  2725  07AA  0238               	subwf	___flmul@temp,w
  2726  07AB                     u2165:
  2727  07AB  1C03               	skipc
  2728  07AC  2FAE               	goto	u2161
  2729  07AD  2FAF               	goto	u2160
  2730  07AE                     u2161:
  2731  07AE  2FBA               	goto	l1647
  2732  07AF                     u2160:
  2733  07AF                     l1645:
  2734  07AF  307F               	movlw	127
  2735  07B0  1283               	bcf	3,5	;RP0=0, select bank0
  2736  07B1  1303               	bcf	3,6	;RP1=0, select bank0
  2737  07B2  00B7               	movwf	___flmul@prod+3
  2738  07B3  3080               	movlw	128
  2739  07B4  00B6               	movwf	___flmul@prod+2
  2740  07B5  3000               	movlw	0
  2741  07B6  00B5               	movwf	___flmul@prod+1
  2742  07B7  3000               	movlw	0
  2743  07B8  00B4               	movwf	___flmul@prod
  2744  07B9  2FEF               	goto	l556
  2745  07BA                     l1647:
  2746  07BA  1283               	bcf	3,5	;RP0=0, select bank0
  2747  07BB  1303               	bcf	3,6	;RP1=0, select bank0
  2748  07BC  0839               	movf	___flmul@temp+1,w
  2749  07BD  3A80               	xorlw	128
  2750  07BE  00FF               	movwf	btemp+1
  2751  07BF  3080               	movlw	128
  2752  07C0  027F               	subwf	btemp+1,w
  2753  07C1  1D03               	skipz
  2754  07C2  2FC5               	goto	u2175
  2755  07C3  3001               	movlw	1
  2756  07C4  0238               	subwf	___flmul@temp,w
  2757  07C5                     u2175:
  2758  07C5  1803               	skipnc
  2759  07C6  2FC8               	goto	u2171
  2760  07C7  2FC9               	goto	u2170
  2761  07C8                     u2171:
  2762  07C8  2FD5               	goto	l1653
  2763  07C9                     u2170:
  2764  07C9                     l1649:
  2765  07C9  3000               	movlw	0
  2766  07CA  1283               	bcf	3,5	;RP0=0, select bank0
  2767  07CB  1303               	bcf	3,6	;RP1=0, select bank0
  2768  07CC  00B7               	movwf	___flmul@prod+3
  2769  07CD  3000               	movlw	0
  2770  07CE  00B6               	movwf	___flmul@prod+2
  2771  07CF  3000               	movlw	0
  2772  07D0  00B5               	movwf	___flmul@prod+1
  2773  07D1  3000               	movlw	0
  2774  07D2  00B4               	movwf	___flmul@prod
  2775  07D3                     l1651:
  2776  07D3  01AD               	clrf	___flmul@sign
  2777  07D4  2FEF               	goto	l556
  2778  07D5                     l1653:
  2779  07D5  1283               	bcf	3,5	;RP0=0, select bank0
  2780  07D6  1303               	bcf	3,6	;RP1=0, select bank0
  2781  07D7  0838               	movf	___flmul@temp,w
  2782  07D8  00A8               	movwf	??___flmul
  2783  07D9  0828               	movf	??___flmul,w
  2784  07DA  00B3               	movwf	___flmul@bexp
  2785  07DB  30FF               	movlw	255
  2786  07DC  05B4               	andwf	___flmul@prod,f
  2787  07DD  30FF               	movlw	255
  2788  07DE  05B5               	andwf	___flmul@prod+1,f
  2789  07DF  307F               	movlw	127
  2790  07E0  05B6               	andwf	___flmul@prod+2,f
  2791  07E1  3000               	movlw	0
  2792  07E2  05B7               	andwf	___flmul@prod+3,f
  2793  07E3                     l1655:
  2794  07E3  1C33               	btfss	___flmul@bexp,0
  2795  07E4  2FE6               	goto	u2181
  2796  07E5  2FE7               	goto	u2180
  2797  07E6                     u2181:
  2798  07E6  2FE8               	goto	l1659
  2799  07E7                     u2180:
  2800  07E7                     l1657:
  2801  07E7  17B6               	bsf	___flmul@prod+2,7
  2802  07E8                     l1659:
  2803  07E8  0833               	movf	___flmul@bexp,w
  2804  07E9  00A8               	movwf	??___flmul
  2805  07EA  1003               	clrc
  2806  07EB  0C28               	rrf	??___flmul,w
  2807  07EC  00A9               	movwf	??___flmul+1
  2808  07ED  0829               	movf	??___flmul+1,w
  2809  07EE  00B7               	movwf	___flmul@prod+3
  2810  07EF                     l556:
  2811  07EF  082D               	movf	___flmul@sign,w
  2812  07F0  00A8               	movwf	??___flmul
  2813  07F1  0828               	movf	??___flmul,w
  2814  07F2  04B7               	iorwf	___flmul@prod+3,f
  2815  07F3                     l1661:
  2816  07F3  0837               	movf	___flmul@prod+3,w
  2817  07F4  00A3               	movwf	?___flmul+3
  2818  07F5  0836               	movf	___flmul@prod+2,w
  2819  07F6  00A2               	movwf	?___flmul+2
  2820  07F7  0835               	movf	___flmul@prod+1,w
  2821  07F8  00A1               	movwf	?___flmul+1
  2822  07F9  0834               	movf	___flmul@prod,w
  2823  07FA  00A0               	movwf	?___flmul
  2824  07FB                     l544:
  2825  07FB  0008               	return
  2826  07FC                     __end_of___flmul:
  2827                           
  2828                           	psect	text10
  2829  0EE8                     __ptext10:	
  2830 ;; *************** function __Umul8_16 *****************
  2831 ;; Defined at:
  2832 ;;		line 4 in file "C:\Program Files\Microchip\xc8\v2.32\pic\sources\c90\common\Umul8_16.c"
  2833 ;; Parameters:    Size  Location     Type
  2834 ;;  multiplier      1    wreg     unsigned char 
  2835 ;;  multiplicand    1    0[COMMON] unsigned char 
  2836 ;; Auto vars:     Size  Location     Type
  2837 ;;  multiplier      1    8[COMMON] unsigned char 
  2838 ;;  word_mpld       2    6[COMMON] unsigned int 
  2839 ;;  product         2    4[COMMON] unsigned int 
  2840 ;; Return value:  Size  Location     Type
  2841 ;;                  2    0[COMMON] unsigned int 
  2842 ;; Registers used:
  2843 ;;		wreg, status,2, status,0
  2844 ;; Tracked objects:
  2845 ;;		On entry : 0/0
  2846 ;;		On exit  : 0/0
  2847 ;;		Unchanged: 0/0
  2848 ;; Data sizes:     COMMON   BANK0   BANK1   BANK3   BANK2
  2849 ;;      Params:         2       0       0       0       0
  2850 ;;      Locals:         5       0       0       0       0
  2851 ;;      Temps:          2       0       0       0       0
  2852 ;;      Totals:         9       0       0       0       0
  2853 ;;Total ram usage:        9 bytes
  2854 ;; Hardware stack levels used: 1
  2855 ;; This function calls:
  2856 ;;		Nothing
  2857 ;; This function is called by:
  2858 ;;		___flmul
  2859 ;; This function uses a non-reentrant model
  2860 ;;
  2861                           
  2862                           
  2863                           ;psect for function __Umul8_16
  2864  0EE8                     __Umul8_16:
  2865                           
  2866                           ;incstack = 0
  2867                           ; Regs used in __Umul8_16: [wreg+status,2+status,0]
  2868                           ;__Umul8_16@multiplier stored from wreg
  2869  0EE8  00F8               	movwf	__Umul8_16@multiplier
  2870  0EE9                     l1221:
  2871  0EE9  01F4               	clrf	__Umul8_16@product
  2872  0EEA  01F5               	clrf	__Umul8_16@product+1
  2873  0EEB                     l1223:
  2874  0EEB  0870               	movf	__Umul8_16@multiplicand,w
  2875  0EEC  00F2               	movwf	??__Umul8_16
  2876  0EED  01F3               	clrf	??__Umul8_16+1
  2877  0EEE  0872               	movf	??__Umul8_16,w
  2878  0EEF  00F6               	movwf	__Umul8_16@word_mpld
  2879  0EF0  0873               	movf	??__Umul8_16+1,w
  2880  0EF1  00F7               	movwf	__Umul8_16@word_mpld+1
  2881  0EF2                     l1225:
  2882  0EF2  1C78               	btfss	__Umul8_16@multiplier,0
  2883  0EF3  2EF5               	goto	u1191
  2884  0EF4  2EF6               	goto	u1190
  2885  0EF5                     u1191:
  2886  0EF5  2EFC               	goto	l563
  2887  0EF6                     u1190:
  2888  0EF6                     l1227:
  2889  0EF6  0876               	movf	__Umul8_16@word_mpld,w
  2890  0EF7  07F4               	addwf	__Umul8_16@product,f
  2891  0EF8  1803               	skipnc
  2892  0EF9  0AF5               	incf	__Umul8_16@product+1,f
  2893  0EFA  0877               	movf	__Umul8_16@word_mpld+1,w
  2894  0EFB  07F5               	addwf	__Umul8_16@product+1,f
  2895  0EFC                     l563:
  2896  0EFC  3001               	movlw	1
  2897  0EFD                     u1205:
  2898  0EFD  1003               	clrc
  2899  0EFE  0DF6               	rlf	__Umul8_16@word_mpld,f
  2900  0EFF  0DF7               	rlf	__Umul8_16@word_mpld+1,f
  2901  0F00  3EFF               	addlw	-1
  2902  0F01  1D03               	skipz
  2903  0F02  2EFD               	goto	u1205
  2904  0F03  1003               	clrc
  2905  0F04  0CF8               	rrf	__Umul8_16@multiplier,f
  2906  0F05                     l1229:
  2907  0F05  0878               	movf	__Umul8_16@multiplier,w
  2908  0F06  1D03               	btfss	3,2
  2909  0F07  2F09               	goto	u1211
  2910  0F08  2F0A               	goto	u1210
  2911  0F09                     u1211:
  2912  0F09  2EF2               	goto	l1225
  2913  0F0A                     u1210:
  2914  0F0A                     l1231:
  2915  0F0A  0875               	movf	__Umul8_16@product+1,w
  2916  0F0B  00F1               	movwf	?__Umul8_16+1
  2917  0F0C  0874               	movf	__Umul8_16@product,w
  2918  0F0D  00F0               	movwf	?__Umul8_16
  2919  0F0E                     l565:
  2920  0F0E  0008               	return
  2921  0F0F                     __end_of__Umul8_16:
  2922                           
  2923                           	psect	text11
  2924  02BE                     __ptext11:	
  2925 ;; *************** function ___fldiv *****************
  2926 ;; Defined at:
  2927 ;;		line 8 in file "C:\Program Files\Microchip\xc8\v2.32\pic\sources\c90\common\sprcdiv.c"
  2928 ;; Parameters:    Size  Location     Type
  2929 ;;  a               4   26[BANK0 ] unsigned int 
  2930 ;;  b               4   30[BANK0 ] unsigned int 
  2931 ;; Auto vars:     Size  Location     Type
  2932 ;;  grs             4   46[BANK0 ] unsigned long 
  2933 ;;  rem             4   39[BANK0 ] unsigned long 
  2934 ;;  new_exp         2   44[BANK0 ] int 
  2935 ;;  aexp            1   51[BANK0 ] unsigned char 
  2936 ;;  bexp            1   50[BANK0 ] unsigned char 
  2937 ;;  sign            1   43[BANK0 ] unsigned char 
  2938 ;; Return value:  Size  Location     Type
  2939 ;;                  4   26[BANK0 ] unsigned char 
  2940 ;; Registers used:
  2941 ;;		wreg, status,2, status,0, btemp+1
  2942 ;; Tracked objects:
  2943 ;;		On entry : 0/0
  2944 ;;		On exit  : 0/0
  2945 ;;		Unchanged: 0/0
  2946 ;; Data sizes:     COMMON   BANK0   BANK1   BANK3   BANK2
  2947 ;;      Params:         0       8       0       0       0
  2948 ;;      Locals:         0      13       0       0       0
  2949 ;;      Temps:          0       5       0       0       0
  2950 ;;      Totals:         0      26       0       0       0
  2951 ;;Total ram usage:       26 bytes
  2952 ;; Hardware stack levels used: 1
  2953 ;; This function calls:
  2954 ;;		Nothing
  2955 ;; This function is called by:
  2956 ;;		_main
  2957 ;; This function uses a non-reentrant model
  2958 ;;
  2959                           
  2960                           
  2961                           ;psect for function ___fldiv
  2962  02BE                     ___fldiv:
  2963  02BE                     l1383:	
  2964                           ;incstack = 0
  2965                           ; Regs used in ___fldiv: [wreg+status,2+status,0+btemp+1]
  2966                           
  2967  02BE  1283               	bcf	3,5	;RP0=0, select bank0
  2968  02BF  1303               	bcf	3,6	;RP1=0, select bank0
  2969  02C0  0841               	movf	___fldiv@b+3,w
  2970  02C1  3980               	andlw	128
  2971  02C2  00C2               	movwf	??___fldiv
  2972  02C3  0842               	movf	??___fldiv,w
  2973  02C4  00CB               	movwf	___fldiv@sign
  2974  02C5                     l1385:
  2975  02C5  0841               	movf	___fldiv@b+3,w
  2976  02C6  00C2               	movwf	??___fldiv
  2977  02C7  0742               	addwf	??___fldiv,w
  2978  02C8  00C3               	movwf	??___fldiv+1
  2979  02C9  0843               	movf	??___fldiv+1,w
  2980  02CA  00D2               	movwf	___fldiv@bexp
  2981  02CB                     l1387:
  2982  02CB  1FC0               	btfss	___fldiv@b+2,7
  2983  02CC  2ACE               	goto	u1531
  2984  02CD  2ACF               	goto	u1530
  2985  02CE                     u1531:
  2986  02CE  2AD0               	goto	l1391
  2987  02CF                     u1530:
  2988  02CF                     l1389:
  2989  02CF  1452               	bsf	___fldiv@bexp,0
  2990  02D0                     l1391:
  2991  02D0  0852               	movf	___fldiv@bexp,w
  2992  02D1  1903               	btfsc	3,2
  2993  02D2  2AD4               	goto	u1541
  2994  02D3  2AD5               	goto	u1540
  2995  02D4                     u1541:
  2996  02D4  2AE5               	goto	l1401
  2997  02D5                     u1540:
  2998  02D5                     l1393:
  2999  02D5  0A52               	incf	___fldiv@bexp,w
  3000  02D6  1D03               	btfss	3,2
  3001  02D7  2AD9               	goto	u1551
  3002  02D8  2ADA               	goto	u1550
  3003  02D9                     u1551:
  3004  02D9  2AE2               	goto	l1397
  3005  02DA                     u1550:
  3006  02DA                     l1395:
  3007  02DA  3000               	movlw	0
  3008  02DB  00C1               	movwf	___fldiv@b+3
  3009  02DC  3000               	movlw	0
  3010  02DD  00C0               	movwf	___fldiv@b+2
  3011  02DE  3000               	movlw	0
  3012  02DF  00BF               	movwf	___fldiv@b+1
  3013  02E0  3000               	movlw	0
  3014  02E1  00BE               	movwf	___fldiv@b
  3015  02E2                     l1397:
  3016  02E2  17C0               	bsf	___fldiv@b+2,7
  3017  02E3                     l1399:
  3018  02E3  01C1               	clrf	___fldiv@b+3
  3019  02E4  2AED               	goto	l1403
  3020  02E5                     l1401:
  3021  02E5  3000               	movlw	0
  3022  02E6  00C1               	movwf	___fldiv@b+3
  3023  02E7  3000               	movlw	0
  3024  02E8  00C0               	movwf	___fldiv@b+2
  3025  02E9  3000               	movlw	0
  3026  02EA  00BF               	movwf	___fldiv@b+1
  3027  02EB  3000               	movlw	0
  3028  02EC  00BE               	movwf	___fldiv@b
  3029  02ED                     l1403:
  3030  02ED  083D               	movf	___fldiv@a+3,w
  3031  02EE  3980               	andlw	128
  3032  02EF  00C2               	movwf	??___fldiv
  3033  02F0  0842               	movf	??___fldiv,w
  3034  02F1  06CB               	xorwf	___fldiv@sign,f
  3035  02F2                     l1405:
  3036  02F2  083D               	movf	___fldiv@a+3,w
  3037  02F3  00C2               	movwf	??___fldiv
  3038  02F4  0742               	addwf	??___fldiv,w
  3039  02F5  00C3               	movwf	??___fldiv+1
  3040  02F6  0843               	movf	??___fldiv+1,w
  3041  02F7  00D3               	movwf	___fldiv@aexp
  3042  02F8                     l1407:
  3043  02F8  1FBC               	btfss	___fldiv@a+2,7
  3044  02F9  2AFB               	goto	u1561
  3045  02FA  2AFC               	goto	u1560
  3046  02FB                     u1561:
  3047  02FB  2AFD               	goto	l1411
  3048  02FC                     u1560:
  3049  02FC                     l1409:
  3050  02FC  1453               	bsf	___fldiv@aexp,0
  3051  02FD                     l1411:
  3052  02FD  0853               	movf	___fldiv@aexp,w
  3053  02FE  1903               	btfsc	3,2
  3054  02FF  2B01               	goto	u1571
  3055  0300  2B02               	goto	u1570
  3056  0301                     u1571:
  3057  0301  2B12               	goto	l1421
  3058  0302                     u1570:
  3059  0302                     l1413:
  3060  0302  0A53               	incf	___fldiv@aexp,w
  3061  0303  1D03               	btfss	3,2
  3062  0304  2B06               	goto	u1581
  3063  0305  2B07               	goto	u1580
  3064  0306                     u1581:
  3065  0306  2B0F               	goto	l1417
  3066  0307                     u1580:
  3067  0307                     l1415:
  3068  0307  3000               	movlw	0
  3069  0308  00BD               	movwf	___fldiv@a+3
  3070  0309  3000               	movlw	0
  3071  030A  00BC               	movwf	___fldiv@a+2
  3072  030B  3000               	movlw	0
  3073  030C  00BB               	movwf	___fldiv@a+1
  3074  030D  3000               	movlw	0
  3075  030E  00BA               	movwf	___fldiv@a
  3076  030F                     l1417:
  3077  030F  17BC               	bsf	___fldiv@a+2,7
  3078  0310                     l1419:
  3079  0310  01BD               	clrf	___fldiv@a+3
  3080  0311  2B1A               	goto	l504
  3081  0312                     l1421:
  3082  0312  3000               	movlw	0
  3083  0313  00BD               	movwf	___fldiv@a+3
  3084  0314  3000               	movlw	0
  3085  0315  00BC               	movwf	___fldiv@a+2
  3086  0316  3000               	movlw	0
  3087  0317  00BB               	movwf	___fldiv@a+1
  3088  0318  3000               	movlw	0
  3089  0319  00BA               	movwf	___fldiv@a
  3090  031A                     l504:
  3091  031A  083D               	movf	___fldiv@a+3,w
  3092  031B  043C               	iorwf	___fldiv@a+2,w
  3093  031C  043B               	iorwf	___fldiv@a+1,w
  3094  031D  043A               	iorwf	___fldiv@a,w
  3095  031E  1D03               	skipz
  3096  031F  2B21               	goto	u1591
  3097  0320  2B22               	goto	u1590
  3098  0321                     u1591:
  3099  0321  2B3B               	goto	l1431
  3100  0322                     u1590:
  3101  0322                     l1423:
  3102  0322  3000               	movlw	0
  3103  0323  00C1               	movwf	___fldiv@b+3
  3104  0324  3000               	movlw	0
  3105  0325  00C0               	movwf	___fldiv@b+2
  3106  0326  3000               	movlw	0
  3107  0327  00BF               	movwf	___fldiv@b+1
  3108  0328  3000               	movlw	0
  3109  0329  00BE               	movwf	___fldiv@b
  3110  032A  3080               	movlw	128
  3111  032B  04C0               	iorwf	___fldiv@b+2,f
  3112  032C  307F               	movlw	127
  3113  032D  04C1               	iorwf	___fldiv@b+3,f
  3114  032E                     l1425:
  3115  032E  084B               	movf	___fldiv@sign,w
  3116  032F  00C2               	movwf	??___fldiv
  3117  0330  0842               	movf	??___fldiv,w
  3118  0331  04C1               	iorwf	___fldiv@b+3,f
  3119  0332                     l1427:
  3120  0332  0841               	movf	___fldiv@b+3,w
  3121  0333  00BD               	movwf	?___fldiv+3
  3122  0334  0840               	movf	___fldiv@b+2,w
  3123  0335  00BC               	movwf	?___fldiv+2
  3124  0336  083F               	movf	___fldiv@b+1,w
  3125  0337  00BB               	movwf	?___fldiv+1
  3126  0338  083E               	movf	___fldiv@b,w
  3127  0339  00BA               	movwf	?___fldiv
  3128  033A  2C9A               	goto	l506
  3129  033B                     l1431:
  3130  033B  0852               	movf	___fldiv@bexp,w
  3131  033C  1D03               	btfss	3,2
  3132  033D  2B3F               	goto	u1601
  3133  033E  2B40               	goto	u1600
  3134  033F                     u1601:
  3135  033F  2B49               	goto	l1437
  3136  0340                     u1600:
  3137  0340                     l1433:
  3138  0340  3000               	movlw	0
  3139  0341  00BD               	movwf	?___fldiv+3
  3140  0342  3000               	movlw	0
  3141  0343  00BC               	movwf	?___fldiv+2
  3142  0344  3000               	movlw	0
  3143  0345  00BB               	movwf	?___fldiv+1
  3144  0346  3000               	movlw	0
  3145  0347  00BA               	movwf	?___fldiv
  3146  0348  2C9A               	goto	l506
  3147  0349                     l1437:
  3148  0349  0852               	movf	___fldiv@bexp,w
  3149  034A  00C2               	movwf	??___fldiv
  3150  034B  01C3               	clrf	??___fldiv+1
  3151  034C  0843               	movf	??___fldiv+1,w
  3152  034D  00C5               	movwf	??___fldiv+3
  3153  034E  0853               	movf	___fldiv@aexp,w
  3154  034F  0242               	subwf	??___fldiv,w
  3155  0350  00C4               	movwf	??___fldiv+2
  3156  0351  1C03               	skipc
  3157  0352  03C5               	decf	??___fldiv+3,f
  3158  0353  0844               	movf	??___fldiv+2,w
  3159  0354  3E7F               	addlw	127
  3160  0355  00CC               	movwf	___fldiv@new_exp
  3161  0356  0845               	movf	??___fldiv+3,w
  3162  0357  1803               	skipnc
  3163  0358  3E01               	addlw	1
  3164  0359  3E00               	addlw	0
  3165  035A  00CD               	movwf	___fldiv@new_exp+1
  3166  035B                     l1439:
  3167  035B  0841               	movf	___fldiv@b+3,w
  3168  035C  00CA               	movwf	___fldiv@rem+3
  3169  035D  0840               	movf	___fldiv@b+2,w
  3170  035E  00C9               	movwf	___fldiv@rem+2
  3171  035F  083F               	movf	___fldiv@b+1,w
  3172  0360  00C8               	movwf	___fldiv@rem+1
  3173  0361  083E               	movf	___fldiv@b,w
  3174  0362  00C7               	movwf	___fldiv@rem
  3175  0363                     l1441:
  3176  0363  3000               	movlw	0
  3177  0364  00C1               	movwf	___fldiv@b+3
  3178  0365  3000               	movlw	0
  3179  0366  00C0               	movwf	___fldiv@b+2
  3180  0367  3000               	movlw	0
  3181  0368  00BF               	movwf	___fldiv@b+1
  3182  0369  3000               	movlw	0
  3183  036A  00BE               	movwf	___fldiv@b
  3184  036B                     l1443:
  3185  036B  3000               	movlw	0
  3186  036C  00D1               	movwf	___fldiv@grs+3
  3187  036D  3000               	movlw	0
  3188  036E  00D0               	movwf	___fldiv@grs+2
  3189  036F  3000               	movlw	0
  3190  0370  00CF               	movwf	___fldiv@grs+1
  3191  0371  3000               	movlw	0
  3192  0372  00CE               	movwf	___fldiv@grs
  3193  0373                     l1445:
  3194  0373  01D3               	clrf	___fldiv@aexp
  3195  0374  2BBF               	goto	l1465
  3196  0375                     l1447:
  3197  0375  0853               	movf	___fldiv@aexp,w
  3198  0376  1903               	btfsc	3,2
  3199  0377  2B79               	goto	u1611
  3200  0378  2B7A               	goto	u1610
  3201  0379                     u1611:
  3202  0379  2B9A               	goto	l1457
  3203  037A                     u1610:
  3204  037A                     l1449:
  3205  037A  3001               	movlw	1
  3206  037B  00C2               	movwf	??___fldiv
  3207  037C                     u1625:
  3208  037C  1003               	clrc
  3209  037D  0DC7               	rlf	___fldiv@rem,f
  3210  037E  0DC8               	rlf	___fldiv@rem+1,f
  3211  037F  0DC9               	rlf	___fldiv@rem+2,f
  3212  0380  0DCA               	rlf	___fldiv@rem+3,f
  3213  0381  0BC2               	decfsz	??___fldiv,f
  3214  0382  2B7C               	goto	u1625
  3215  0383  3001               	movlw	1
  3216  0384  00C2               	movwf	??___fldiv
  3217  0385                     u1635:
  3218  0385  1003               	clrc
  3219  0386  0DBE               	rlf	___fldiv@b,f
  3220  0387  0DBF               	rlf	___fldiv@b+1,f
  3221  0388  0DC0               	rlf	___fldiv@b+2,f
  3222  0389  0DC1               	rlf	___fldiv@b+3,f
  3223  038A  0BC2               	decfsz	??___fldiv,f
  3224  038B  2B85               	goto	u1635
  3225  038C                     l1451:
  3226  038C  1FD1               	btfss	___fldiv@grs+3,7
  3227  038D  2B8F               	goto	u1641
  3228  038E  2B90               	goto	u1640
  3229  038F                     u1641:
  3230  038F  2B91               	goto	l1455
  3231  0390                     u1640:
  3232  0390                     l1453:
  3233  0390  143E               	bsf	___fldiv@b,0
  3234  0391                     l1455:
  3235  0391  3001               	movlw	1
  3236  0392  00C2               	movwf	??___fldiv
  3237  0393                     u1655:
  3238  0393  1003               	clrc
  3239  0394  0DCE               	rlf	___fldiv@grs,f
  3240  0395  0DCF               	rlf	___fldiv@grs+1,f
  3241  0396  0DD0               	rlf	___fldiv@grs+2,f
  3242  0397  0DD1               	rlf	___fldiv@grs+3,f
  3243  0398  0BC2               	decfsz	??___fldiv,f
  3244  0399  2B93               	goto	u1655
  3245  039A                     l1457:
  3246  039A  083D               	movf	___fldiv@a+3,w
  3247  039B  024A               	subwf	___fldiv@rem+3,w
  3248  039C  1D03               	skipz
  3249  039D  2BA8               	goto	u1665
  3250  039E  083C               	movf	___fldiv@a+2,w
  3251  039F  0249               	subwf	___fldiv@rem+2,w
  3252  03A0  1D03               	skipz
  3253  03A1  2BA8               	goto	u1665
  3254  03A2  083B               	movf	___fldiv@a+1,w
  3255  03A3  0248               	subwf	___fldiv@rem+1,w
  3256  03A4  1D03               	skipz
  3257  03A5  2BA8               	goto	u1665
  3258  03A6  083A               	movf	___fldiv@a,w
  3259  03A7  0247               	subwf	___fldiv@rem,w
  3260  03A8                     u1665:
  3261  03A8  1C03               	skipc
  3262  03A9  2BAB               	goto	u1661
  3263  03AA  2BAC               	goto	u1660
  3264  03AB                     u1661:
  3265  03AB  2BBB               	goto	l1463
  3266  03AC                     u1660:
  3267  03AC                     l1459:
  3268  03AC  1751               	bsf	___fldiv@grs+3,6
  3269  03AD                     l1461:
  3270  03AD  083A               	movf	___fldiv@a,w
  3271  03AE  02C7               	subwf	___fldiv@rem,f
  3272  03AF  083B               	movf	___fldiv@a+1,w
  3273  03B0  1C03               	skipc
  3274  03B1  0F3B               	incfsz	___fldiv@a+1,w
  3275  03B2  02C8               	subwf	___fldiv@rem+1,f
  3276  03B3  083C               	movf	___fldiv@a+2,w
  3277  03B4  1C03               	skipc
  3278  03B5  0F3C               	incfsz	___fldiv@a+2,w
  3279  03B6  02C9               	subwf	___fldiv@rem+2,f
  3280  03B7  083D               	movf	___fldiv@a+3,w
  3281  03B8  1C03               	skipc
  3282  03B9  0F3D               	incfsz	___fldiv@a+3,w
  3283  03BA  02CA               	subwf	___fldiv@rem+3,f
  3284  03BB                     l1463:
  3285  03BB  3001               	movlw	1
  3286  03BC  00C2               	movwf	??___fldiv
  3287  03BD  0842               	movf	??___fldiv,w
  3288  03BE  07D3               	addwf	___fldiv@aexp,f
  3289  03BF                     l1465:
  3290  03BF  301A               	movlw	26
  3291  03C0  0253               	subwf	___fldiv@aexp,w
  3292  03C1  1C03               	skipc
  3293  03C2  2BC4               	goto	u1671
  3294  03C3  2BC5               	goto	u1670
  3295  03C4                     u1671:
  3296  03C4  2B75               	goto	l1447
  3297  03C5                     u1670:
  3298  03C5                     l1467:
  3299  03C5  084A               	movf	___fldiv@rem+3,w
  3300  03C6  0449               	iorwf	___fldiv@rem+2,w
  3301  03C7  0448               	iorwf	___fldiv@rem+1,w
  3302  03C8  0447               	iorwf	___fldiv@rem,w
  3303  03C9  1903               	skipnz
  3304  03CA  2BCC               	goto	u1681
  3305  03CB  2BCD               	goto	u1680
  3306  03CC                     u1681:
  3307  03CC  2BEC               	goto	l1481
  3308  03CD                     u1680:
  3309  03CD                     l1469:
  3310  03CD  144E               	bsf	___fldiv@grs,0
  3311  03CE  2BEC               	goto	l1481
  3312  03CF                     l1471:
  3313  03CF  3001               	movlw	1
  3314  03D0  00C2               	movwf	??___fldiv
  3315  03D1                     u1695:
  3316  03D1  1003               	clrc
  3317  03D2  0DBE               	rlf	___fldiv@b,f
  3318  03D3  0DBF               	rlf	___fldiv@b+1,f
  3319  03D4  0DC0               	rlf	___fldiv@b+2,f
  3320  03D5  0DC1               	rlf	___fldiv@b+3,f
  3321  03D6  0BC2               	decfsz	??___fldiv,f
  3322  03D7  2BD1               	goto	u1695
  3323  03D8                     l1473:
  3324  03D8  1FD1               	btfss	___fldiv@grs+3,7
  3325  03D9  2BDB               	goto	u1701
  3326  03DA  2BDC               	goto	u1700
  3327  03DB                     u1701:
  3328  03DB  2BDD               	goto	l1477
  3329  03DC                     u1700:
  3330  03DC                     l1475:
  3331  03DC  143E               	bsf	___fldiv@b,0
  3332  03DD                     l1477:
  3333  03DD  3001               	movlw	1
  3334  03DE  00C2               	movwf	??___fldiv
  3335  03DF                     u1715:
  3336  03DF  1003               	clrc
  3337  03E0  0DCE               	rlf	___fldiv@grs,f
  3338  03E1  0DCF               	rlf	___fldiv@grs+1,f
  3339  03E2  0DD0               	rlf	___fldiv@grs+2,f
  3340  03E3  0DD1               	rlf	___fldiv@grs+3,f
  3341  03E4  0BC2               	decfsz	??___fldiv,f
  3342  03E5  2BDF               	goto	u1715
  3343  03E6                     l1479:
  3344  03E6  30FF               	movlw	255
  3345  03E7  07CC               	addwf	___fldiv@new_exp,f
  3346  03E8  1803               	skipnc
  3347  03E9  0ACD               	incf	___fldiv@new_exp+1,f
  3348  03EA  30FF               	movlw	255
  3349  03EB  07CD               	addwf	___fldiv@new_exp+1,f
  3350  03EC                     l1481:
  3351  03EC  1FC0               	btfss	___fldiv@b+2,7
  3352  03ED  2BEF               	goto	u1721
  3353  03EE  2BF0               	goto	u1720
  3354  03EF                     u1721:
  3355  03EF  2BCF               	goto	l1471
  3356  03F0                     u1720:
  3357  03F0                     l1483:
  3358  03F0  01D3               	clrf	___fldiv@aexp
  3359  03F1                     l1485:
  3360  03F1  1FD1               	btfss	___fldiv@grs+3,7
  3361  03F2  2BF4               	goto	u1731
  3362  03F3  2BF5               	goto	u1730
  3363  03F4                     u1731:
  3364  03F4  2C11               	goto	l1493
  3365  03F5                     u1730:
  3366  03F5                     l1487:
  3367  03F5  30FF               	movlw	255
  3368  03F6  054E               	andwf	___fldiv@grs,w
  3369  03F7  00C2               	movwf	??___fldiv
  3370  03F8  30FF               	movlw	255
  3371  03F9  054F               	andwf	___fldiv@grs+1,w
  3372  03FA  00C3               	movwf	??___fldiv+1
  3373  03FB  30FF               	movlw	255
  3374  03FC  0550               	andwf	___fldiv@grs+2,w
  3375  03FD  00C4               	movwf	??___fldiv+2
  3376  03FE  307F               	movlw	127
  3377  03FF  0551               	andwf	___fldiv@grs+3,w
  3378  0400  00C5               	movwf	??___fldiv+3
  3379  0401  0845               	movf	??___fldiv+3,w
  3380  0402  0444               	iorwf	??___fldiv+2,w
  3381  0403  0443               	iorwf	??___fldiv+1,w
  3382  0404  0442               	iorwf	??___fldiv,w
  3383  0405  1903               	skipnz
  3384  0406  2C08               	goto	u1741
  3385  0407  2C09               	goto	u1740
  3386  0408                     u1741:
  3387  0408  2C0C               	goto	l520
  3388  0409                     u1740:
  3389  0409                     l1489:
  3390  0409  01D3               	clrf	___fldiv@aexp
  3391  040A  0AD3               	incf	___fldiv@aexp,f
  3392  040B  2C11               	goto	l1493
  3393  040C                     l520:
  3394  040C  1C3E               	btfss	___fldiv@b,0
  3395  040D  2C0F               	goto	u1751
  3396  040E  2C10               	goto	u1750
  3397  040F                     u1751:
  3398  040F  2C11               	goto	l1493
  3399  0410                     u1750:
  3400  0410  2C09               	goto	l1489
  3401  0411                     l1493:
  3402  0411  0853               	movf	___fldiv@aexp,w
  3403  0412  1903               	btfsc	3,2
  3404  0413  2C15               	goto	u1761
  3405  0414  2C16               	goto	u1760
  3406  0415                     u1761:
  3407  0415  2C47               	goto	l1503
  3408  0416                     u1760:
  3409  0416                     l1495:
  3410  0416  3001               	movlw	1
  3411  0417  07BE               	addwf	___fldiv@b,f
  3412  0418  3000               	movlw	0
  3413  0419  1803               	skipnc
  3414  041A  3001               	movlw	1
  3415  041B  07BF               	addwf	___fldiv@b+1,f
  3416  041C  3000               	movlw	0
  3417  041D  1803               	skipnc
  3418  041E  3001               	movlw	1
  3419  041F  07C0               	addwf	___fldiv@b+2,f
  3420  0420  3000               	movlw	0
  3421  0421  1803               	skipnc
  3422  0422  3001               	movlw	1
  3423  0423  07C1               	addwf	___fldiv@b+3,f
  3424  0424                     l1497:
  3425  0424  1C41               	btfss	___fldiv@b+3,0
  3426  0425  2C27               	goto	u1771
  3427  0426  2C28               	goto	u1770
  3428  0427                     u1771:
  3429  0427  2C47               	goto	l1503
  3430  0428                     u1770:
  3431  0428                     l1499:
  3432  0428  083E               	movf	___fldiv@b,w
  3433  0429  00C2               	movwf	??___fldiv
  3434  042A  083F               	movf	___fldiv@b+1,w
  3435  042B  00C3               	movwf	??___fldiv+1
  3436  042C  0840               	movf	___fldiv@b+2,w
  3437  042D  00C4               	movwf	??___fldiv+2
  3438  042E  0841               	movf	___fldiv@b+3,w
  3439  042F  00C5               	movwf	??___fldiv+3
  3440  0430  3001               	movlw	1
  3441  0431  00C6               	movwf	??___fldiv+4
  3442  0432                     u1785:
  3443  0432  0D45               	rlf	??___fldiv+3,w
  3444  0433  0CC5               	rrf	??___fldiv+3,f
  3445  0434  0CC4               	rrf	??___fldiv+2,f
  3446  0435  0CC3               	rrf	??___fldiv+1,f
  3447  0436  0CC2               	rrf	??___fldiv,f
  3448  0437                     u1780:
  3449  0437  0BC6               	decfsz	??___fldiv+4,f
  3450  0438  2C32               	goto	u1785
  3451  0439  0845               	movf	??___fldiv+3,w
  3452  043A  00C1               	movwf	___fldiv@b+3
  3453  043B  0844               	movf	??___fldiv+2,w
  3454  043C  00C0               	movwf	___fldiv@b+2
  3455  043D  0843               	movf	??___fldiv+1,w
  3456  043E  00BF               	movwf	___fldiv@b+1
  3457  043F  0842               	movf	??___fldiv,w
  3458  0440  00BE               	movwf	___fldiv@b
  3459  0441                     l1501:
  3460  0441  3001               	movlw	1
  3461  0442  07CC               	addwf	___fldiv@new_exp,f
  3462  0443  1803               	skipnc
  3463  0444  0ACD               	incf	___fldiv@new_exp+1,f
  3464  0445  3000               	movlw	0
  3465  0446  07CD               	addwf	___fldiv@new_exp+1,f
  3466  0447                     l1503:
  3467  0447  084D               	movf	___fldiv@new_exp+1,w
  3468  0448  3A80               	xorlw	128
  3469  0449  00FF               	movwf	btemp+1
  3470  044A  3080               	movlw	128
  3471  044B  027F               	subwf	btemp+1,w
  3472  044C  1D03               	skipz
  3473  044D  2C50               	goto	u1795
  3474  044E  30FF               	movlw	255
  3475  044F  024C               	subwf	___fldiv@new_exp,w
  3476  0450                     u1795:
  3477  0450  1C03               	skipc
  3478  0451  2C53               	goto	u1791
  3479  0452  2C54               	goto	u1790
  3480  0453                     u1791:
  3481  0453  2C62               	goto	l1507
  3482  0454                     u1790:
  3483  0454                     l1505:
  3484  0454  30FF               	movlw	255
  3485  0455  1283               	bcf	3,5	;RP0=0, select bank0
  3486  0456  1303               	bcf	3,6	;RP1=0, select bank0
  3487  0457  00CC               	movwf	___fldiv@new_exp
  3488  0458  3000               	movlw	0
  3489  0459  00CD               	movwf	___fldiv@new_exp+1
  3490  045A  3000               	movlw	0
  3491  045B  00C1               	movwf	___fldiv@b+3
  3492  045C  3000               	movlw	0
  3493  045D  00C0               	movwf	___fldiv@b+2
  3494  045E  3000               	movlw	0
  3495  045F  00BF               	movwf	___fldiv@b+1
  3496  0460  3000               	movlw	0
  3497  0461  00BE               	movwf	___fldiv@b
  3498  0462                     l1507:
  3499  0462  1283               	bcf	3,5	;RP0=0, select bank0
  3500  0463  1303               	bcf	3,6	;RP1=0, select bank0
  3501  0464  084D               	movf	___fldiv@new_exp+1,w
  3502  0465  3A80               	xorlw	128
  3503  0466  00FF               	movwf	btemp+1
  3504  0467  3080               	movlw	128
  3505  0468  027F               	subwf	btemp+1,w
  3506  0469  1D03               	skipz
  3507  046A  2C6D               	goto	u1805
  3508  046B  3001               	movlw	1
  3509  046C  024C               	subwf	___fldiv@new_exp,w
  3510  046D                     u1805:
  3511  046D  1803               	skipnc
  3512  046E  2C70               	goto	u1801
  3513  046F  2C71               	goto	u1800
  3514  0470                     u1801:
  3515  0470  2C7E               	goto	l526
  3516  0471                     u1800:
  3517  0471                     l1509:
  3518  0471  1283               	bcf	3,5	;RP0=0, select bank0
  3519  0472  1303               	bcf	3,6	;RP1=0, select bank0
  3520  0473  01CC               	clrf	___fldiv@new_exp
  3521  0474  01CD               	clrf	___fldiv@new_exp+1
  3522  0475                     l1511:
  3523  0475  3000               	movlw	0
  3524  0476  00C1               	movwf	___fldiv@b+3
  3525  0477  3000               	movlw	0
  3526  0478  00C0               	movwf	___fldiv@b+2
  3527  0479  3000               	movlw	0
  3528  047A  00BF               	movwf	___fldiv@b+1
  3529  047B  3000               	movlw	0
  3530  047C  00BE               	movwf	___fldiv@b
  3531  047D                     l1513:
  3532  047D  01CB               	clrf	___fldiv@sign
  3533  047E                     l526:
  3534  047E  1283               	bcf	3,5	;RP0=0, select bank0
  3535  047F  1303               	bcf	3,6	;RP1=0, select bank0
  3536  0480  084C               	movf	___fldiv@new_exp,w
  3537  0481  00C2               	movwf	??___fldiv
  3538  0482  0842               	movf	??___fldiv,w
  3539  0483  00D2               	movwf	___fldiv@bexp
  3540  0484                     l1515:
  3541  0484  1C52               	btfss	___fldiv@bexp,0
  3542  0485  2C87               	goto	u1811
  3543  0486  2C88               	goto	u1810
  3544  0487                     u1811:
  3545  0487  2C8A               	goto	l1519
  3546  0488                     u1810:
  3547  0488                     l1517:
  3548  0488  17C0               	bsf	___fldiv@b+2,7
  3549  0489  2C8E               	goto	l528
  3550  048A                     l1519:
  3551  048A  307F               	movlw	127
  3552  048B  00C2               	movwf	??___fldiv
  3553  048C  0842               	movf	??___fldiv,w
  3554  048D  05C0               	andwf	___fldiv@b+2,f
  3555  048E                     l528:
  3556  048E  0852               	movf	___fldiv@bexp,w
  3557  048F  00C2               	movwf	??___fldiv
  3558  0490  1003               	clrc
  3559  0491  0C42               	rrf	??___fldiv,w
  3560  0492  00C3               	movwf	??___fldiv+1
  3561  0493  0843               	movf	??___fldiv+1,w
  3562  0494  00C1               	movwf	___fldiv@b+3
  3563  0495  084B               	movf	___fldiv@sign,w
  3564  0496  00C2               	movwf	??___fldiv
  3565  0497  0842               	movf	??___fldiv,w
  3566  0498  04C1               	iorwf	___fldiv@b+3,f
  3567  0499  2B32               	goto	l1427
  3568  049A                     l506:
  3569  049A  0008               	return
  3570  049B                     __end_of___fldiv:
  3571                           
  3572                           	psect	text12
  3573  0FA7                     __ptext12:	
  3574 ;; *************** function ___awmod *****************
  3575 ;; Defined at:
  3576 ;;		line 5 in file "C:\Program Files\Microchip\xc8\v2.32\pic\sources\c90\common\awmod.c"
  3577 ;; Parameters:    Size  Location     Type
  3578 ;;  divisor         2    0[COMMON] int 
  3579 ;;  dividend        2    2[COMMON] int 
  3580 ;; Auto vars:     Size  Location     Type
  3581 ;;  sign            1    6[COMMON] unsigned char 
  3582 ;;  counter         1    5[COMMON] unsigned char 
  3583 ;; Return value:  Size  Location     Type
  3584 ;;                  2    0[COMMON] int 
  3585 ;; Registers used:
  3586 ;;		wreg, status,2, status,0
  3587 ;; Tracked objects:
  3588 ;;		On entry : 0/0
  3589 ;;		On exit  : 0/0
  3590 ;;		Unchanged: 0/0
  3591 ;; Data sizes:     COMMON   BANK0   BANK1   BANK3   BANK2
  3592 ;;      Params:         4       0       0       0       0
  3593 ;;      Locals:         2       0       0       0       0
  3594 ;;      Temps:          1       0       0       0       0
  3595 ;;      Totals:         7       0       0       0       0
  3596 ;;Total ram usage:        7 bytes
  3597 ;; Hardware stack levels used: 1
  3598 ;; This function calls:
  3599 ;;		Nothing
  3600 ;; This function is called by:
  3601 ;;		_main
  3602 ;; This function uses a non-reentrant model
  3603 ;;
  3604                           
  3605                           
  3606                           ;psect for function ___awmod
  3607  0FA7                     ___awmod:
  3608  0FA7                     l1309:	
  3609                           ;incstack = 0
  3610                           ; Regs used in ___awmod: [wreg+status,2+status,0]
  3611                           
  3612  0FA7  01F6               	clrf	___awmod@sign
  3613  0FA8                     l1311:
  3614  0FA8  1FF3               	btfss	___awmod@dividend+1,7
  3615  0FA9  2FAB               	goto	u1341
  3616  0FAA  2FAC               	goto	u1340
  3617  0FAB                     u1341:
  3618  0FAB  2FB3               	goto	l1317
  3619  0FAC                     u1340:
  3620  0FAC                     l1313:
  3621  0FAC  09F2               	comf	___awmod@dividend,f
  3622  0FAD  09F3               	comf	___awmod@dividend+1,f
  3623  0FAE  0AF2               	incf	___awmod@dividend,f
  3624  0FAF  1903               	skipnz
  3625  0FB0  0AF3               	incf	___awmod@dividend+1,f
  3626  0FB1                     l1315:
  3627  0FB1  01F6               	clrf	___awmod@sign
  3628  0FB2  0AF6               	incf	___awmod@sign,f
  3629  0FB3                     l1317:
  3630  0FB3  1FF1               	btfss	___awmod@divisor+1,7
  3631  0FB4  2FB6               	goto	u1351
  3632  0FB5  2FB7               	goto	u1350
  3633  0FB6                     u1351:
  3634  0FB6  2FBC               	goto	l1321
  3635  0FB7                     u1350:
  3636  0FB7                     l1319:
  3637  0FB7  09F0               	comf	___awmod@divisor,f
  3638  0FB8  09F1               	comf	___awmod@divisor+1,f
  3639  0FB9  0AF0               	incf	___awmod@divisor,f
  3640  0FBA  1903               	skipnz
  3641  0FBB  0AF1               	incf	___awmod@divisor+1,f
  3642  0FBC                     l1321:
  3643  0FBC  0870               	movf	___awmod@divisor,w
  3644  0FBD  0471               	iorwf	___awmod@divisor+1,w
  3645  0FBE  1903               	btfsc	3,2
  3646  0FBF  2FC1               	goto	u1361
  3647  0FC0  2FC2               	goto	u1360
  3648  0FC1                     u1361:
  3649  0FC1  2FF1               	goto	l1339
  3650  0FC2                     u1360:
  3651  0FC2                     l1323:
  3652  0FC2  01F5               	clrf	___awmod@counter
  3653  0FC3  0AF5               	incf	___awmod@counter,f
  3654  0FC4  2FD0               	goto	l1329
  3655  0FC5                     l1325:
  3656  0FC5  3001               	movlw	1
  3657  0FC6                     u1375:
  3658  0FC6  1003               	clrc
  3659  0FC7  0DF0               	rlf	___awmod@divisor,f
  3660  0FC8  0DF1               	rlf	___awmod@divisor+1,f
  3661  0FC9  3EFF               	addlw	-1
  3662  0FCA  1D03               	skipz
  3663  0FCB  2FC6               	goto	u1375
  3664  0FCC                     l1327:
  3665  0FCC  3001               	movlw	1
  3666  0FCD  00F4               	movwf	??___awmod
  3667  0FCE  0874               	movf	??___awmod,w
  3668  0FCF  07F5               	addwf	___awmod@counter,f
  3669  0FD0                     l1329:
  3670  0FD0  1FF1               	btfss	___awmod@divisor+1,7
  3671  0FD1  2FD3               	goto	u1381
  3672  0FD2  2FD4               	goto	u1380
  3673  0FD3                     u1381:
  3674  0FD3  2FC5               	goto	l1325
  3675  0FD4                     u1380:
  3676  0FD4                     l1331:
  3677  0FD4  0871               	movf	___awmod@divisor+1,w
  3678  0FD5  0273               	subwf	___awmod@dividend+1,w
  3679  0FD6  1D03               	skipz
  3680  0FD7  2FDA               	goto	u1395
  3681  0FD8  0870               	movf	___awmod@divisor,w
  3682  0FD9  0272               	subwf	___awmod@dividend,w
  3683  0FDA                     u1395:
  3684  0FDA  1C03               	skipc
  3685  0FDB  2FDD               	goto	u1391
  3686  0FDC  2FDE               	goto	u1390
  3687  0FDD                     u1391:
  3688  0FDD  2FE4               	goto	l1335
  3689  0FDE                     u1390:
  3690  0FDE                     l1333:
  3691  0FDE  0870               	movf	___awmod@divisor,w
  3692  0FDF  02F2               	subwf	___awmod@dividend,f
  3693  0FE0  0871               	movf	___awmod@divisor+1,w
  3694  0FE1  1C03               	skipc
  3695  0FE2  03F3               	decf	___awmod@dividend+1,f
  3696  0FE3  02F3               	subwf	___awmod@dividend+1,f
  3697  0FE4                     l1335:
  3698  0FE4  3001               	movlw	1
  3699  0FE5                     u1405:
  3700  0FE5  1003               	clrc
  3701  0FE6  0CF1               	rrf	___awmod@divisor+1,f
  3702  0FE7  0CF0               	rrf	___awmod@divisor,f
  3703  0FE8  3EFF               	addlw	-1
  3704  0FE9  1D03               	skipz
  3705  0FEA  2FE5               	goto	u1405
  3706  0FEB                     l1337:
  3707  0FEB  3001               	movlw	1
  3708  0FEC  02F5               	subwf	___awmod@counter,f
  3709  0FED  1D03               	btfss	3,2
  3710  0FEE  2FF0               	goto	u1411
  3711  0FEF  2FF1               	goto	u1410
  3712  0FF0                     u1411:
  3713  0FF0  2FD4               	goto	l1331
  3714  0FF1                     u1410:
  3715  0FF1                     l1339:
  3716  0FF1  0876               	movf	___awmod@sign,w
  3717  0FF2  1903               	btfsc	3,2
  3718  0FF3  2FF5               	goto	u1421
  3719  0FF4  2FF6               	goto	u1420
  3720  0FF5                     u1421:
  3721  0FF5  2FFB               	goto	l1343
  3722  0FF6                     u1420:
  3723  0FF6                     l1341:
  3724  0FF6  09F2               	comf	___awmod@dividend,f
  3725  0FF7  09F3               	comf	___awmod@dividend+1,f
  3726  0FF8  0AF2               	incf	___awmod@dividend,f
  3727  0FF9  1903               	skipnz
  3728  0FFA  0AF3               	incf	___awmod@dividend+1,f
  3729  0FFB                     l1343:
  3730  0FFB  0873               	movf	___awmod@dividend+1,w
  3731  0FFC  00F1               	movwf	?___awmod+1
  3732  0FFD  0872               	movf	___awmod@dividend,w
  3733  0FFE  00F0               	movwf	?___awmod
  3734  0FFF                     l321:
  3735  0FFF  0008               	return
  3736  1000                     __end_of___awmod:
  3737                           
  3738                           	psect	text13
  3739  000D                     __ptext13:	
  3740 ;; *************** function ___awdiv *****************
  3741 ;; Defined at:
  3742 ;;		line 5 in file "C:\Program Files\Microchip\xc8\v2.32\pic\sources\c90\common\awdiv.c"
  3743 ;; Parameters:    Size  Location     Type
  3744 ;;  divisor         2    7[COMMON] int 
  3745 ;;  dividend        2    9[COMMON] int 
  3746 ;; Auto vars:     Size  Location     Type
  3747 ;;  quotient        2    2[BANK0 ] int 
  3748 ;;  sign            1    1[BANK0 ] unsigned char 
  3749 ;;  counter         1    0[BANK0 ] unsigned char 
  3750 ;; Return value:  Size  Location     Type
  3751 ;;                  2    7[COMMON] int 
  3752 ;; Registers used:
  3753 ;;		wreg, status,2, status,0
  3754 ;; Tracked objects:
  3755 ;;		On entry : 0/0
  3756 ;;		On exit  : 0/0
  3757 ;;		Unchanged: 0/0
  3758 ;; Data sizes:     COMMON   BANK0   BANK1   BANK3   BANK2
  3759 ;;      Params:         4       0       0       0       0
  3760 ;;      Locals:         0       4       0       0       0
  3761 ;;      Temps:          1       0       0       0       0
  3762 ;;      Totals:         5       4       0       0       0
  3763 ;;Total ram usage:        9 bytes
  3764 ;; Hardware stack levels used: 1
  3765 ;; This function calls:
  3766 ;;		Nothing
  3767 ;; This function is called by:
  3768 ;;		_main
  3769 ;; This function uses a non-reentrant model
  3770 ;;
  3771                           
  3772                           
  3773                           ;psect for function ___awdiv
  3774  000D                     ___awdiv:
  3775  000D                     l1265:	
  3776                           ;incstack = 0
  3777                           ; Regs used in ___awdiv: [wreg+status,2+status,0]
  3778                           
  3779  000D  1283               	bcf	3,5	;RP0=0, select bank0
  3780  000E  1303               	bcf	3,6	;RP1=0, select bank0
  3781  000F  01A1               	clrf	___awdiv@sign
  3782  0010                     l1267:
  3783  0010  1FF8               	btfss	___awdiv@divisor+1,7
  3784  0011  2813               	goto	u1241
  3785  0012  2814               	goto	u1240
  3786  0013                     u1241:
  3787  0013  281B               	goto	l1273
  3788  0014                     u1240:
  3789  0014                     l1269:
  3790  0014  09F7               	comf	___awdiv@divisor,f
  3791  0015  09F8               	comf	___awdiv@divisor+1,f
  3792  0016  0AF7               	incf	___awdiv@divisor,f
  3793  0017  1903               	skipnz
  3794  0018  0AF8               	incf	___awdiv@divisor+1,f
  3795  0019                     l1271:
  3796  0019  01A1               	clrf	___awdiv@sign
  3797  001A  0AA1               	incf	___awdiv@sign,f
  3798  001B                     l1273:
  3799  001B  1FFA               	btfss	___awdiv@dividend+1,7
  3800  001C  281E               	goto	u1251
  3801  001D  281F               	goto	u1250
  3802  001E                     u1251:
  3803  001E  2828               	goto	l1279
  3804  001F                     u1250:
  3805  001F                     l1275:
  3806  001F  09F9               	comf	___awdiv@dividend,f
  3807  0020  09FA               	comf	___awdiv@dividend+1,f
  3808  0021  0AF9               	incf	___awdiv@dividend,f
  3809  0022  1903               	skipnz
  3810  0023  0AFA               	incf	___awdiv@dividend+1,f
  3811  0024                     l1277:
  3812  0024  3001               	movlw	1
  3813  0025  00FB               	movwf	??___awdiv
  3814  0026  087B               	movf	??___awdiv,w
  3815  0027  06A1               	xorwf	___awdiv@sign,f
  3816  0028                     l1279:
  3817  0028  01A2               	clrf	___awdiv@quotient
  3818  0029  01A3               	clrf	___awdiv@quotient+1
  3819  002A                     l1281:
  3820  002A  0877               	movf	___awdiv@divisor,w
  3821  002B  0478               	iorwf	___awdiv@divisor+1,w
  3822  002C  1903               	btfsc	3,2
  3823  002D  282F               	goto	u1261
  3824  002E  2830               	goto	u1260
  3825  002F                     u1261:
  3826  002F  2867               	goto	l1301
  3827  0030                     u1260:
  3828  0030                     l1283:
  3829  0030  01A0               	clrf	___awdiv@counter
  3830  0031  0AA0               	incf	___awdiv@counter,f
  3831  0032  283E               	goto	l1289
  3832  0033                     l1285:
  3833  0033  3001               	movlw	1
  3834  0034                     u1275:
  3835  0034  1003               	clrc
  3836  0035  0DF7               	rlf	___awdiv@divisor,f
  3837  0036  0DF8               	rlf	___awdiv@divisor+1,f
  3838  0037  3EFF               	addlw	-1
  3839  0038  1D03               	skipz
  3840  0039  2834               	goto	u1275
  3841  003A                     l1287:
  3842  003A  3001               	movlw	1
  3843  003B  00FB               	movwf	??___awdiv
  3844  003C  087B               	movf	??___awdiv,w
  3845  003D  07A0               	addwf	___awdiv@counter,f
  3846  003E                     l1289:
  3847  003E  1FF8               	btfss	___awdiv@divisor+1,7
  3848  003F  2841               	goto	u1281
  3849  0040  2842               	goto	u1280
  3850  0041                     u1281:
  3851  0041  2833               	goto	l1285
  3852  0042                     u1280:
  3853  0042                     l1291:
  3854  0042  3001               	movlw	1
  3855  0043                     u1295:
  3856  0043  1003               	clrc
  3857  0044  0DA2               	rlf	___awdiv@quotient,f
  3858  0045  0DA3               	rlf	___awdiv@quotient+1,f
  3859  0046  3EFF               	addlw	-1
  3860  0047  1D03               	skipz
  3861  0048  2843               	goto	u1295
  3862  0049  0878               	movf	___awdiv@divisor+1,w
  3863  004A  027A               	subwf	___awdiv@dividend+1,w
  3864  004B  1D03               	skipz
  3865  004C  284F               	goto	u1305
  3866  004D  0877               	movf	___awdiv@divisor,w
  3867  004E  0279               	subwf	___awdiv@dividend,w
  3868  004F                     u1305:
  3869  004F  1C03               	skipc
  3870  0050  2852               	goto	u1301
  3871  0051  2853               	goto	u1300
  3872  0052                     u1301:
  3873  0052  285A               	goto	l1297
  3874  0053                     u1300:
  3875  0053                     l1293:
  3876  0053  0877               	movf	___awdiv@divisor,w
  3877  0054  02F9               	subwf	___awdiv@dividend,f
  3878  0055  0878               	movf	___awdiv@divisor+1,w
  3879  0056  1C03               	skipc
  3880  0057  03FA               	decf	___awdiv@dividend+1,f
  3881  0058  02FA               	subwf	___awdiv@dividend+1,f
  3882  0059                     l1295:
  3883  0059  1422               	bsf	___awdiv@quotient,0
  3884  005A                     l1297:
  3885  005A  3001               	movlw	1
  3886  005B                     u1315:
  3887  005B  1003               	clrc
  3888  005C  0CF8               	rrf	___awdiv@divisor+1,f
  3889  005D  0CF7               	rrf	___awdiv@divisor,f
  3890  005E  3EFF               	addlw	-1
  3891  005F  1D03               	skipz
  3892  0060  285B               	goto	u1315
  3893  0061                     l1299:
  3894  0061  3001               	movlw	1
  3895  0062  02A0               	subwf	___awdiv@counter,f
  3896  0063  1D03               	btfss	3,2
  3897  0064  2866               	goto	u1321
  3898  0065  2867               	goto	u1320
  3899  0066                     u1321:
  3900  0066  2842               	goto	l1291
  3901  0067                     u1320:
  3902  0067                     l1301:
  3903  0067  0821               	movf	___awdiv@sign,w
  3904  0068  1903               	btfsc	3,2
  3905  0069  286B               	goto	u1331
  3906  006A  286C               	goto	u1330
  3907  006B                     u1331:
  3908  006B  2871               	goto	l1305
  3909  006C                     u1330:
  3910  006C                     l1303:
  3911  006C  09A2               	comf	___awdiv@quotient,f
  3912  006D  09A3               	comf	___awdiv@quotient+1,f
  3913  006E  0AA2               	incf	___awdiv@quotient,f
  3914  006F  1903               	skipnz
  3915  0070  0AA3               	incf	___awdiv@quotient+1,f
  3916  0071                     l1305:
  3917  0071  0823               	movf	___awdiv@quotient+1,w
  3918  0072  00F8               	movwf	?___awdiv+1
  3919  0073  0822               	movf	___awdiv@quotient,w
  3920  0074  00F7               	movwf	?___awdiv
  3921  0075                     l308:
  3922  0075  0008               	return
  3923  0076                     __end_of___awdiv:
  3924  007E                     btemp	set	126	;btemp
  3925  007E                     wtemp0	set	126
  3926                           
  3927                           	psect	config
  3928                           
  3929                           ;Config register CONFIG @ 0x2007
  3930                           ;	Oscillator Selection bits
  3931                           ;	FOSC = XT, XT oscillator
  3932                           ;	Watchdog Timer Enable bit
  3933                           ;	WDTE = OFF, WDT disabled
  3934                           ;	Power-up Timer Enable bit
  3935                           ;	PWRTE = OFF, PWRT disabled
  3936                           ;	FLASH Program Memory Code Protection bits
  3937                           ;	CP = OFF, Code protection off
  3938                           ;	Brown-out Reset Enable bit
  3939                           ;	BOREN = ON, BOR enabled
  3940                           ;	Low Voltage In-Circuit Serial Programming Enable bit
  3941                           ;	LVP = ON, RB3/PGM pin has PGM function; low-voltage programming enabled
  3942                           ;	Data EE Memory Code Protection
  3943                           ;	CPD = OFF, Code Protection off
  3944                           ;	FLASH Program Memory Write Enable
  3945                           ;	WRT = OFF, Unprotected program memory may not be written to by EECON control
  3946                           ;	In-Circuit Debugger Mode bit
  3947                           ;	DEBUG = 0x1, unprogrammed default
  3948  2007                     	org	8199
  3949  2007  3DF9               	dw	15865

Data Sizes:
    Strings     0
    Constant    0
    Data        0
    BSS         0
    Persistent  0
    Stack       0

Auto Spaces:
    Space          Size  Autos    Used
    COMMON           14     14      14
    BANK0            80     64      64
    BANK1            80      0       0
    BANK3            96      0       0
    BANK2            96      0       0

Pointer List with Targets:

    None.

Critical Paths under _main in COMMON

    _main->___xxtofl
    _send_data->_wait
    _lcd_prepare->_lcd_clean
    _lcd_clean->_lcd_command
    _lcd_gotoxy->_lcd_command
    _lcd_command->_wait
    ___flmul->___xxtofl
    ___fldiv->___xxtofl
    ___awdiv->___awmod

Critical Paths under _main in BANK0

    _main->___fldiv
    ___fldiv->___flmul

Critical Paths under _main in BANK1

    None.

Critical Paths under _main in BANK3

    None.

Critical Paths under _main in BANK2

    None.

Call Graph Tables:

 ---------------------------------------------------------------------------------
 (Depth) Function   	        Calls       Base Space   Used Autos Params    Refs
 ---------------------------------------------------------------------------------
 (0) _main                                                12    12      0    6332
                                             52 BANK0     12    12      0
                            ___awdiv
                            ___awmod
                            ___fldiv
                            ___flmul
                            ___fltol
                           ___xxtofl
                         _lcd_gotoxy
                        _lcd_prepare
                          _send_data
 ---------------------------------------------------------------------------------
 (1) _send_data                                            3     3      0      44
                                              1 COMMON     3     3      0
                               _wait
 ---------------------------------------------------------------------------------
 (1) _lcd_prepare                                          2     2      0      88
                                              6 COMMON     2     2      0
                          _lcd_clean
                        _lcd_command
 ---------------------------------------------------------------------------------
 (2) _lcd_clean                                            2     2      0      44
                                              4 COMMON     2     2      0
                        _lcd_command
 ---------------------------------------------------------------------------------
 (1) _lcd_gotoxy                                           2     1      1     186
                                              4 COMMON     2     1      1
                        _lcd_command
 ---------------------------------------------------------------------------------
 (2) _lcd_command                                          3     3      0      44
                                              1 COMMON     3     3      0
                               _wait
 ---------------------------------------------------------------------------------
 (2) _wait                                                 1     1      0       0
                                              0 COMMON     1     1      0
 ---------------------------------------------------------------------------------
 (1) ___xxtofl                                            14    10      4     398
                                              0 COMMON    14    10      4
 ---------------------------------------------------------------------------------
 (1) ___fltol                                             11     7      4     305
                                              0 COMMON    11     7      4
 ---------------------------------------------------------------------------------
 (1) ___flmul                                             26    18      8    2569
                                              0 BANK0     26    18      8
                          __Umul8_16
                           ___xxtofl (ARG)
 ---------------------------------------------------------------------------------
 (2) __Umul8_16                                            9     7      2     799
                                              0 COMMON     9     7      2
 ---------------------------------------------------------------------------------
 (1) ___fldiv                                             26    18      8    1273
                                             26 BANK0     26    18      8
                            ___flmul (ARG)
                           ___xxtofl (ARG)
 ---------------------------------------------------------------------------------
 (1) ___awmod                                              7     3      4     752
                                              0 COMMON     7     3      4
 ---------------------------------------------------------------------------------
 (1) ___awdiv                                              9     5      4     604
                                              7 COMMON     5     1      4
                                              0 BANK0      4     4      0
                            ___awmod (ARG)
 ---------------------------------------------------------------------------------
 Estimated maximum stack depth 2
 ---------------------------------------------------------------------------------

 Call Graph Graphs:

 _main (ROOT)
   ___awdiv
     ___awmod (ARG)
   ___awmod
   ___fldiv
     ___flmul (ARG)
       __Umul8_16
       ___xxtofl (ARG)
     ___xxtofl (ARG)
   ___flmul
   ___fltol
   ___xxtofl
   _lcd_gotoxy
     _lcd_command
       _wait
   _lcd_prepare
     _lcd_clean
       _lcd_command
     _lcd_command
   _send_data
     _wait

 Address spaces:
Name               Size   Autos  Total    Cost      Usage
BITCOMMON            E      0       0       0        0.0%
EEDATA             100      0       0       0        0.0%
NULL                 0      0       0       0        0.0%
CODE                 0      0       0       0        0.0%
COMMON               E      E       E       1      100.0%
BITSFR0              0      0       0       1        0.0%
SFR0                 0      0       0       1        0.0%
BITSFR1              0      0       0       2        0.0%
SFR1                 0      0       0       2        0.0%
STACK                0      0       0       2        0.0%
ABS                  0      0       0       3        0.0%
BITBANK0            50      0       0       4        0.0%
BITSFR3              0      0       0       4        0.0%
SFR3                 0      0       0       4        0.0%
BANK0               50     40      40       5       80.0%
BITSFR2              0      0       0       5        0.0%
SFR2                 0      0       0       5        0.0%
BITBANK1            50      0       0       6        0.0%
BANK1               50      0       0       7        0.0%
BITBANK3            60      0       0       8        0.0%
BANK3               60      0       0       9        0.0%
BITBANK2            60      0       0      10        0.0%
BANK2               60      0       0      11        0.0%
DATA                 0      0       0      12        0.0%


Microchip Technology PIC Macro Assembler V2.32 build 20210201212658 
Symbol Table                                                                                   Sat Jan 01 22:57:59 2022

           ?_lcd_prepare 0070             ___fldiv@aexp 0053             ___fldiv@bexp 0052  
           ___fldiv@sign 004B                       l21 0ECD                       l15 000C  
                     l32 0EE7                       l18 0F68                       l35 0FA6  
                     l38 0F3B                       l64 01BF             ___awdiv@sign 0021  
    __Umul8_16@word_mpld 0076                      l321 0FFF                      l308 0075  
                    l341 00EF                      l351 00EF                      l520 040C  
                    l504 031A                      l601 0173                      l506 049A  
                    l602 017F                      l348 00DA                      l526 047E  
                    l550 0767                      l528 048E                      l544 07FB  
                    l563 0EFC                      l556 07EF                      l565 0F0E  
                    l590 01A9                      l594 0157                      l588 0112  
                    _RD0 0040                      _RD1 0041                      _RD2 0042  
           ___awmod@sign 0076             ___flmul@aexp 0032             ___flmul@bexp 0033  
           ___flmul@sign 002D             ___flmul@temp 0038             ___flmul@prod 0034  
            lcd_gotoxy@x 0075              lcd_gotoxy@y 0074             lcd_command@c 0073  
           ___fltol@exp1 007A                     l1201 0008                     l1211 0F22  
                   l1203 0F10                     l1301 0067                     l1221 0EE9  
                   l1213 0F25                     l1205 0F15                     l1303 006C  
                   l1311 0FA8                     l1231 0F0A                     l1223 0EEB  
                   l1215 0F35                     l1207 0F1C                     l1305 0071  
                   l1321 0FBC                     l1313 0FAC                     l1401 02E5  
                   l1225 0EF2                     l1209 0F1D                     l1217 0EBE  
                   l1241 0F4A                     l1331 0FD4                     l1323 0FC2  
                   l1315 0FB1                     l1411 02FD                     l1403 02ED  
                   l1227 0EF6                     l1251 0ED4                     l1219 0EC4  
                   l1243 0F4F                     l1235 0F3D                     l1341 0FF6  
                   l1333 0FDE                     l1325 0FC5                     l1317 0FB3  
                   l1309 0FA7                     l1501 0441                     l1413 0302  
                   l1421 0312                     l1405 02F2                     l1229 0F05  
                   l1253 0EDE                     l1261 0F7A                     l1245 0F52  
                   l1237 0F42                     l1271 0019                     l1343 0FFB  
                   l1335 0FE4                     l1327 0FCC                     l1319 0FB7  
                   l1511 0475                     l1503 0447                     l1423 0322  
                   l1431 033B                     l1415 0307                     l1407 02F8  
                   l1263 0F80                     l1255 0F69                     l1247 0F62  
                   l1239 0F49                     l1281 002A                     l1273 001B  
                   l1265 000D                     l1337 0FEB                     l1329 0FD0  
                   l1513 047D                     l1505 0454                     l1441 0363  
                   l1433 0340                     l1425 032E                     l1417 030F  
                   l1409 02FC                     l1601 0698                     l1361 00AA  
                   l1353 008A                     l1249 0ECF                     l1257 0F6E  
                   l1291 0042                     l1283 0030                     l1275 001F  
                   l1267 0010                     l1339 0FF1                     l1515 0484  
                   l1507 0462                     l1451 038C                     l1443 036B  
                   l1427 0332                     l1419 0310                     l1611 072A  
                   l1603 06C5                     l1531 04AC                     l1363 00AE  
                   l1371 00C8                     l1355 009F                     l1347 0076  
                   l1259 0F77                     l1293 0053                     l1285 0033  
                   l1277 0024                     l1269 0014                     l1517 0488  
                   l1509 0471                     l1461 03AD                     l1453 0390  
                   l1445 0373                     l1437 0349                     l1613 0733  
                   l1621 0747                     l1605 06EB                     l1541 04C1  
                   l1533 04AD                     l1525 049B                     l1381 00E4  
                   l1357 00A0                     l1349 0081                     l1701 019C  
                   l1295 0059                     l1287 003A                     l1279 0028  
                   l1519 048A                     l1471 03CF                     l1463 03BB  
                   l1455 0391                     l1447 0375                     l1439 035B  
                   l1391 02D0                     l1383 02BE                     l1623 074B  
                   l1615 0737                     l1607 0713                     l1551 04D9  
                   l1543 04C9                     l1535 04B2                     l1527 04A2  
                   l1359 00A8                     l1703 01A0                     l1297 005A  
                   l1289 003E                     l1473 03D8                     l1481 03EC  
                   l1449 037A                     l1457 039A                     l1465 03BF  
                   l1393 02D5                     l1385 02C5                     l1641 079C  
                   l1633 076C                     l1625 074C                     l1617 0738  
                   l1609 071C                     l1561 04F5                     l1553 04DE  
                   l1545 04CE                     l1537 04B7                     l1529 04A8  
                   l1377 00CF                     l1369 00B6                     l1705 01A1  
                   l1721 01B7                     l1299 0061                     l1483 03F0  
                   l1475 03DC                     l1467 03C5                     l1459 03AC  
                   l1395 02DA                     l1387 02CB                     l1651 07D3  
                   l1635 0771                     l1643 07A2                     l1627 0750  
                   l1619 0741                     l1571 0518                     l1563 04FA  
                   l1555 04E3                     l1547 04D4                     l1539 04BF  
                   l1379 00DF                     l1731 0252                     l1723 01BC  
                   l1493 0411                     l1485 03F1                     l1477 03DD  
                   l1469 03CD                     l1397 02E2                     l1389 02CF  
                   l1661 07F3                     l1653 07D5                     l1645 07AF  
                   l1637 077F                     l1629 0764                     l1581 05A6  
                   l1573 0525                     l1565 04FF                     l1557 04EB  
                   l1549 04D8                     l1733 0275                     l1725 01C3  
                   l1717 01AA                     l1495 0416                     l1487 03F5  
                   l1479 03E6                     l1399 02E3                     l1655 07E3  
                   l1647 07BA                     l1639 0783                     l1591 0608  
                   l1583 05C2                     l1575 0542                     l1559 04ED  
                   l1671 010A                     l1735 027B                     l1727 0237  
                   l1719 01B6                     l1497 0424                     l1489 0409  
                   l1657 07E7                     l1649 07C9                     l1593 0625  
                   l1585 05CB                     l1577 055E                     l1569 0508  
                   l1681 0135                     l1673 011A                     l1665 00F1  
                   l1737 029E                     l1729 024A                     l1499 0428  
                   l1659 07E8                     l1595 063E                     l1587 05DB  
                   l1579 058A                     l1691 0169                     l1683 013C  
                   l1667 00F6                     l1739 02B4                     l1597 065B  
                   l1589 05F8                     l1693 016D                     l1685 0140  
                   l1677 0123                     l1669 00FA                     l1599 0688  
                   l1695 0177                     l1687 014E                     l1679 0128  
                   l1697 0181                     l1689 015E                     l1699 0197  
                   u2001 06A7                     u1210 0F0A                     u2010 06D1  
                   u2002 06AE                     u1211 0F09                     u2003 06B5  
                   u1300 0053                     u2100 0750                     u1301 0052  
                   u1205 0EFD                     u2101 074F                     u2021 06DD  
                   u2110 0764                     u2030 06F9                     u2022 06E4  
                   u1230 0ED4                     u2111 0763                     u2023 06EB  
                   u2015 06CC                     u1231 0ED3                     u1320 0067  
                   u1240 0014                     u2120 076B                     u2200 00FA  
                   u1321 0066                     u1305 004F                     u1241 0013  
                   u2121 076A                     u2041 0705                     u2201 00F9  
                   u1225 0F59                     u1330 006C                     u1250 001F  
                   u1410 0FF1                     u2130 0771                     u2042 070C  
                   u2210 011A                     u1331 006B                     u1315 005B  
                   u1251 001E                     u1411 0FF0                     u2131 0770  
                   u2043 0713                     u2035 06F4                     u2211 0119  
                   u1260 0030                     u1420 0FF6                     u1340 0FAC  
                   u2140 0783                     u2300 018C                     u1261 002F  
                   u1421 0FF5                     u1405 0FE5                     u1341 0FAB  
                   u2141 0782                     u1350 0FB7                     u1190 0EF6  
                   u2150 0792                     u2070 0737                     u1510 00DF  
                   u1430 0081                     u2310 019C                     u2230 013B  
                   u1351 0FB6                     u1191 0EF5                     u2071 0736  
                   u2055 0715                     u1511 00DE                     u1431 0080  
                   u2311 019B                     u2231 013A                     u1280 0042  
                   u1360 0FC2                     u1600 0340                     u2160 07AF  
                   u1520 00E4                     u1440 0098                     u2320 01A0  
                   u1281 0041                     u1361 0FC1                     u1601 033F  
                   u2161 07AE                     u2065 072C                     u1521 00E3  
                   u1505 00D1                     u2321 019F                     u2305 0187  
                   u2225 012D                     u1185 0F2C                     u1610 037A  
                   u1530 02CF                     u2170 07C9                     u2090 074B  
                   u1450 00AE                     u2250 015D                     u1275 0034  
                   u1611 0379                     u1531 02CE                     u2171 07C8  
                   u2155 078D                     u2091 074A                     u1451 00AD  
                   u2251 015C                     u1380 0FD4                     u1700 03DC  
                   u1540 02D5                     u2180 07E7                     u1460 00B5  
                   u2340 01C3                     u1381 0FD3                     u1701 03DB  
                   u1541 02D4                     u2181 07E6                     u2165 07AB  
                   u2085 073A                     u1461 00B4                     u1445 0093  
                   u2245 014F                     u2341 01C2                     u1390 0FDE  
                   u1550 02DA                     u2270 016D                     u2190 00F6  
                   u1295 0043                     u1391 0FDD                     u1375 0FC6  
                   u1551 02D9                     u2175 07C5                     u2271 016C  
                   u2191 00F5                     u1800 0471                     u1720 03F0  
                   u1640 0390                     u1560 02FC                     u1480 00C7  
                   u2280 0173                     u1801 0470                     u1721 03EF  
                   u1641 038F                     u1625 037C                     u1561 02FB  
                   u1481 00C6                     u2281 0172                     u2265 0162  
                   u1810 0488                     u1730 03F5                     u1570 0302  
                   u1490 00CE                     u2290 0177                     u1395 0FDA  
                   u1811 0487                     u1731 03F4                     u1715 03DF  
                   u1635 0385                     u1571 0301                     u1491 00CD  
                   u1475 00B7                     u2291 0176                     u1740 0409  
                   u1660 03AC                     u1580 0307                     u1820 04AC  
                   u1805 046D                     u1741 0408                     u1661 03AB  
                   u1581 0306                     u1901 0550                     u1821 04AB  
                   u2357 0F72                     u1750 0410                     u1670 03C5  
                   u1590 0322                     u1902 0557                     u1830 04B2  
                   u1751 040F                     u1671 03C4                     u1655 0393  
                   u1591 0321                     u1911 056C                     u1903 055E  
                   u1831 04B1                     u2367 0F84                     u1760 0416  
                   u1680 03CD                     u1912 0573                     u1840 04B7  
                   u1761 0415                     u1681 03CC                     u1665 03A8  
                   u1921 0598                     u1913 057A                     u1841 04B6  
                   u2377 0EC8                     u1770 0428                     u1922 059F  
                   u1850 04D8                     u1771 0427                     u1931 05B4  
                   u1923 05A6                     u1851 04D7                     u2387 000A  
                   u1780 0437                     u1932 05BB                     u1860 04DE  
                   u1933 05C2                     u1861 04DD                     u1790 0454  
                   u1870 04E3                     u1791 0453                     u1695 03D1  
                   u1951 05EA                     u1871 04E2                     u1952 05F1  
                   u1880 04FA                     u1785 0432                     u1961 0617  
                   u1953 05F8                     u1945 05C4                     u1881 04F9  
                   u1962 061E                     u1890 04FF                     u1795 0450  
                   u1963 0625                     u1891 04FE                     u1981 064D  
                   u1982 0654                     u1991 067A                     u1983 065B  
                   u1975 0627                     u1992 0681                     u1993 0688  
                   _main 01AA                     _wait 0008                     btemp 007E  
                   start 0000          ___fldiv@new_exp 004C            ___fltol@sign1 0079  
                  ?_main 0070          __end_of___fldiv 049B          __end_of___awdiv 0076  
        __end_of___awmod 1000                    ?_wait 0070          __end_of___flmul 07FC  
        __end_of___fltol 00F0          ___awdiv@divisor 0077          ___awdiv@counter 0020  
                  _PORTD 0008                    _TRISA 0085                    _TRISD 0088  
                  status 0003                    wtemp0 007E          __initialization 07FC  
           __end_of_main 02BE             __end_of_wait 000D                   ??_main 0054  
                 ??_wait 0070                   _ADCON0 001F                   _ADCON1 009F  
                 _ADRESH 001E                   _ADRESL 009E         ___awdiv@dividend 0079  
       __end_of___xxtofl 01AA     __size_of_lcd_command 002D                ??___fldiv 0042  
              ??___awdiv 007B                ??___awmod 0074                ??___flmul 0028  
              ??___fltol 0074         ___awdiv@quotient 0022     __size_of_lcd_prepare 003E  
        ___awmod@divisor 0070          ___awmod@counter 0075       __size_of__Umul8_16 0027  
           ___xxtofl@arg 007A             ___xxtofl@exp 0079             ___xxtofl@val 0070  
__end_of__initialization 07FC               ___fltol@f1 0070           __pcstackCOMMON 0070  
     __size_of_lcd_clean 0010        __end_of__Umul8_16 0F0F               __pmaintext 01AA  
     __size_of_send_data 002D                ?___xxtofl 0070                  _GO_DONE 00FA  
             _lcd_gotoxy 0ECE        __end_of_lcd_clean 0ECE                  ___fldiv 02BE  
                ___awdiv 000D                  ___awmod 0FA7                  ___flmul 049B  
                ___fltol 0076                  __ptext1 0F3C                  __ptext2 0F69  
                __ptext3 0EBE                  __ptext4 0ECE                  __ptext5 0F0F  
                __ptext6 0008                  __ptext7 00F0                  __ptext8 0076  
                __ptext9 049B               ??___xxtofl 0074         ___awmod@dividend 0072  
                main@tmp 0056     end_of_initialization 07FC        __end_of_send_data 0F69  
          ___xxtofl@sign 0078              ?_lcd_gotoxy 0074              ___fldiv@grs 004E  
            ___fldiv@rem 0047              ___flmul@grs 002E            ??_lcd_command 0071  
          ??_lcd_prepare 0076      start_initialization 07FC      __size_of_lcd_gotoxy 001A  
    __end_of_lcd_command 0F3C                __Umul8_16 0EE8      __end_of_lcd_prepare 0FA7  
              ___fldiv@a 003A                ___fldiv@b 003E                ___flmul@a 0024  
              ___flmul@b 0020                ___latbits 0002            __pcstackBANK0 0020  
      __size_of___xxtofl 00BA                 ?___fldiv 003A                 ?___awdiv 0077  
               ?___awmod 0070                 ?___flmul 0020                 ?___fltol 0070  
             ?__Umul8_16 0070                _lcd_clean 0EBE               send_data@c 0073  
              _send_data 0F3C              _lcd_command 0F0F              _lcd_prepare 0F69  
             ?_lcd_clean 0070             ??_lcd_gotoxy 0075               ?_send_data 0070  
     __end_of_lcd_gotoxy 0EE8              ??__Umul8_16 0072         __size_of___fldiv 01DD  
       __size_of___awdiv 0069         __size_of___awmod 0059         __size_of___flmul 0361  
       __size_of___fltol 007A                 ___xxtofl 00F0                 _main$684 005A  
               __ptext10 0EE8                 __ptext11 02BE                 __ptext12 0FA7  
               __ptext13 000D            __size_of_main 0114            __size_of_wait 0005  
            ??_lcd_clean 0074                 main@volt 005E              ??_send_data 0071  
 __Umul8_16@multiplicand 0070     __Umul8_16@multiplier 0078             ?_lcd_command 0070  
      __Umul8_16@product 0074  
